; generated by Component: ARM Compiler 5.06 update 6 (build 750) Tool: ArmCC [4d3637]
; commandline ArmCC [--c99 --split_sections --debug -c --asm --interleave -ostm32nes\lcd_main.o --depend=stm32nes\lcd_main.d --cpu=Cortex-M4.fp --apcs=interwork -O3 -Otime --diag_suppress=9931 -I../Inc -I../Drivers/STM32F4xx_HAL_Driver/Inc -I../Drivers/CMSIS/Device/ST/STM32F4xx/Include -I../Drivers/CMSIS/Include -I../Drivers/STM32F4xx_HAL_Driver/Inc/Legacy -I.\RTE\_stm32nes -IC:\Users\FieryDragon\AppData\Local\Arm\Packs\ARM\CMSIS\5.5.1\CMSIS\Core\Include -IC:\Users\FieryDragon\AppData\Local\Arm\Packs\Keil\STM32F4xx_DFP\2.13.0\Drivers\CMSIS\Device\ST\STM32F4xx\Include -D__UVISION_VERSION=527 -D_RTE_ -DSTM32F407xx -DUSE_FULL_LL_DRIVER -DSTM32F407xx -DUSE_HAL_DRIVER --omf_browse=stm32nes\lcd_main.crf ..\Src\lcd_main.c]
                          THUMB

                          AREA ||i.printi||, CODE, READONLY, ALIGN=2

                  printi PROC
;;;250    
;;;251    static int printi(char **out, int i, int b, int sg, int width, int pad, int letbase)
000000  e92d41f0          PUSH     {r4-r8,lr}
;;;252    {
000004  b084              SUB      sp,sp,#0x10
000006  469c              MOV      r12,r3
000008  e9dd630a          LDRD     r6,r3,[sp,#0x28]
;;;253    	char print_buf[PRINT_BUF_LEN];
;;;254    	register char *s;
;;;255    	register int t, neg = 0, pc = 0;
00000c  2700              MOVS     r7,#0
00000e  f8dd8030          LDR      r8,[sp,#0x30]         ;252
000012  463d              MOV      r5,r7
000014  463c              MOV      r4,r7
000016  b129              CBZ      r1,|L1.36|
;;;256    	register unsigned int u = (unsigned int)i;
;;;257    
;;;258    	if (i == 0) {
;;;259    		print_buf[0] = '0';
;;;260    		print_buf[1] = '\0';
;;;261    		return prints (out, print_buf, width, pad);
;;;262    	}
;;;263    
;;;264    	if (sg && b == 10 && i < 0) {
000018  f1bc0f00          CMP      r12,#0
00001c  d014              BEQ      |L1.72|
00001e  2a0a              CMP      r2,#0xa
000020  d00c              BEQ      |L1.60|
000022  e011              B        |L1.72|
                  |L1.36|
000024  2130              MOVS     r1,#0x30              ;259
000026  f88d1000          STRB     r1,[sp,#0]            ;259
00002a  f88d4001          STRB     r4,[sp,#1]            ;260
00002e  4632              MOV      r2,r6                 ;261
000030  4669              MOV      r1,sp                 ;261
000032  f7fffffe          BL       prints
;;;265    		neg = 1;
;;;266    		u = (unsigned int)-i;
;;;267    	}
;;;268    
;;;269    	s = print_buf + PRINT_BUF_LEN-1;
;;;270    	*s = '\0';
;;;271    
;;;272    	while (u) {
;;;273    		t = (unsigned int)u % b;
;;;274    		if( t >= 10 )
;;;275    			t += letbase - '0' - 10;
;;;276    		*--s = (char)(t + '0');
;;;277    		u /= b;
;;;278    	}
;;;279    
;;;280    	if (neg) {
;;;281    		if( width && (pad & PAD_ZERO) ) {
;;;282    			printchar (out, '-');
;;;283    			++pc;
;;;284    			--width;
;;;285    		}
;;;286    		else {
;;;287    			*--s = '-';
;;;288    		}
;;;289    	}
;;;290    
;;;291    	return pc + prints (out, s, width, pad);
;;;292    }
000036  b004              ADD      sp,sp,#0x10
000038  e8bd81f0          POP      {r4-r8,pc}
                  |L1.60|
00003c  f1b10c00          SUBS     r12,r1,#0             ;264
000040  bfbc              ITT      LT                    ;265
000042  2701              MOVLT    r7,#1                 ;265
000044  f1cc0100          RSBLT    r1,r12,#0             ;266
                  |L1.72|
000048  f88d400b          STRB     r4,[sp,#0xb]          ;270
00004c  f10d0c0b          ADD      r12,sp,#0xb           ;270
000050  b179              CBZ      r1,|L1.114|
000052  bf00              NOP                            ;273
                  |L1.84|
000054  fbb1f4f2          UDIV     r4,r1,r2              ;273
000058  fb021414          MLS      r4,r2,r4,r1           ;273
00005c  2c0a              CMP      r4,#0xa               ;274
00005e  bfa4              ITT      GE                    ;275
000060  4444              ADDGE    r4,r4,r8              ;275
000062  3c3a              SUBGE    r4,r4,#0x3a           ;275
000064  3430              ADDS     r4,r4,#0x30           ;275
000066  fbb1f1f2          UDIV     r1,r1,r2              ;277
00006a  f80c4d01          STRB     r4,[r12,#-1]!         ;276
00006e  2900              CMP      r1,#0                 ;274
000070  d1f0              BNE      |L1.84|
                  |L1.114|
000072  b18f              CBZ      r7,|L1.152|
000074  212d              MOVS     r1,#0x2d              ;282
000076  2e00              CMP      r6,#0                 ;281
000078  bf14              ITE      NE                    ;281
00007a  f0130f02          TSTNE    r3,#2                 ;281
00007e  f80c1d01          STRBEQ   r1,[r12,#-1]!         ;287
000082  d009              BEQ      |L1.152|
000084  6802              LDR      r2,[r0,#0]            ;281
000086  f1050501          ADD      r5,r5,#1              ;281
00008a  f1a60601          SUB      r6,r6,#1              ;281
00008e  7011              STRB     r1,[r2,#0]            ;281
000090  6801              LDR      r1,[r0,#0]            ;281
000092  f1010101          ADD      r1,r1,#1              ;281
000096  6001              STR      r1,[r0,#0]            ;281
                  |L1.152|
000098  4632              MOV      r2,r6                 ;291
00009a  4661              MOV      r1,r12                ;291
00009c  f7fffffe          BL       prints
0000a0  b004              ADD      sp,sp,#0x10
0000a2  4428              ADD      r0,r0,r5              ;291
0000a4  e8bd81f0          POP      {r4-r8,pc}
;;;293    
                          ENDP


                          AREA ||i.prints||, CODE, READONLY, ALIGN=1

                  prints PROC
;;;217    
;;;218    static int prints(char **out, const char *string, int width, int pad)
000000  b4f0              PUSH     {r4-r7}
;;;219    {
;;;220    	register int pc = 0, padchar = ' ';
000002  2620              MOVS     r6,#0x20
000004  f04f0c00          MOV      r12,#0
;;;221    
;;;222    	if (width > 0) {
000008  2a00              CMP      r2,#0
00000a  dd10              BLE      |L2.46|
;;;223    		register int len = 0;
;;;224    		register const char *ptr;
;;;225    		for (ptr = string; *ptr; ++ptr) ++len;
00000c  780f              LDRB     r7,[r1,#0]
00000e  2500              MOVS     r5,#0                 ;223
000010  460c              MOV      r4,r1
000012  b127              CBZ      r7,|L2.30|
                  |L2.20|
000014  f8147f01          LDRB     r7,[r4,#1]!
000018  1c6d              ADDS     r5,r5,#1
00001a  2f00              CMP      r7,#0
00001c  d1fa              BNE      |L2.20|
                  |L2.30|
;;;226    			if (len >= width) width = 0;
00001e  4295              CMP      r5,r2
000020  bfac              ITE      GE
000022  2200              MOVGE    r2,#0
;;;227    		else width -= len;
000024  1b52              SUBLT    r2,r2,r5
;;;228    		if (pad & PAD_ZERO) padchar = '0';
000026  f0130f02          TST      r3,#2
00002a  bf18              IT       NE
00002c  2630              MOVNE    r6,#0x30
                  |L2.46|
;;;229    	}
;;;230    	if (!(pad & PAD_RIGHT)) {
00002e  f0130f01          TST      r3,#1
000032  d10b              BNE      |L2.76|
;;;231    		for ( ; width > 0; --width) {
000034  2a00              CMP      r2,#0
000036  dd09              BLE      |L2.76|
                  |L2.56|
000038  6804              LDR      r4,[r0,#0]
00003a  1e52              SUBS     r2,r2,#1
00003c  f10c0c01          ADD      r12,r12,#1
000040  7026              STRB     r6,[r4,#0]
000042  6803              LDR      r3,[r0,#0]
000044  1c5b              ADDS     r3,r3,#1
000046  6003              STR      r3,[r0,#0]
000048  2a00              CMP      r2,#0
00004a  dcf5              BGT      |L2.56|
                  |L2.76|
;;;232    			printchar (out, padchar);
;;;233    			++pc;
;;;234    		}
;;;235    	}
;;;236    	for ( ; *string ; ++string) {
00004c  780b              LDRB     r3,[r1,#0]
00004e  b153              CBZ      r3,|L2.102|
                  |L2.80|
000050  6804              LDR      r4,[r0,#0]
000052  f10c0c01          ADD      r12,r12,#1
000056  7023              STRB     r3,[r4,#0]
000058  6803              LDR      r3,[r0,#0]
00005a  1c5b              ADDS     r3,r3,#1
00005c  6003              STR      r3,[r0,#0]
00005e  f8113f01          LDRB     r3,[r1,#1]!
000062  2b00              CMP      r3,#0
000064  d1f4              BNE      |L2.80|
                  |L2.102|
;;;237    		printchar (out, *string);
;;;238    		++pc;
;;;239    	}
;;;240    	for ( ; width > 0; --width) {
000066  2a00              CMP      r2,#0
000068  dd09              BLE      |L2.126|
                  |L2.106|
00006a  6801              LDR      r1,[r0,#0]
00006c  1e52              SUBS     r2,r2,#1
00006e  f10c0c01          ADD      r12,r12,#1
000072  700e              STRB     r6,[r1,#0]
000074  6801              LDR      r1,[r0,#0]
000076  1c49              ADDS     r1,r1,#1
000078  6001              STR      r1,[r0,#0]
00007a  2a00              CMP      r2,#0
00007c  dcf5              BGT      |L2.106|
                  |L2.126|
;;;241    		printchar (out, padchar);
;;;242    		++pc;
;;;243    	}
;;;244    
;;;245    	return pc;
;;;246    }
00007e  bcf0              POP      {r4-r7}
000080  4660              MOV      r0,r12                ;245
000082  4770              BX       lr
;;;247    
                          ENDP


                          AREA ||i.tft_circ_push_pxbuf||, CODE, READONLY, ALIGN=2

                  tft_circ_push_pxbuf PROC
;;;609    
;;;610    void tft_circ_push_pxbuf(void* buf, uint32_t x, uint32_t y, uint32_t w, uint32_t h) {
000000  e92d0ff0          PUSH     {r4-r11}
000004  f8dfc174          LDR      r12,|L3.380|
000008  f8dd6020          LDR.W    r6,[sp,#0x20]
                  |L3.12|
00000c  f8dc4000          LDR      r4,[r12,#0]
000010  f4146f00          TST      r4,#0x800
000014  d0fa              BEQ      |L3.12|
000016  4c5a              LDR      r4,|L3.384|
000018  f44f6c00          MOV      r12,#0x800
00001c  f8c4c000          STR      r12,[r4,#0]
;;;611    	tft_dma_wait();
;;;612    	
;;;613    	tft_set_region(x, y, w-1, h-1);
000020  b294              UXTH     r4,r2
000022  fa1ffa81          UXTH     r10,r1
000026  1e5a              SUBS     r2,r3,#1
000028  1e71              SUBS     r1,r6,#1
00002a  4452              ADD      r2,r2,r10
00002c  fa1ff982          UXTH     r9,r2
000030  4421              ADD      r1,r1,r4
000032  fa1ff881          UXTH     r8,r1
000036  222a              MOVS     r2,#0x2a
000038  b672              CPSID    i
00003a  4952              LDR      r1,|L3.388|
                  |L3.60|
00003c  f8d1c008          LDR      r12,[r1,#8]
000040  f01c0f80          TST      r12,#0x80
000044  d1fa              BNE      |L3.60|
000046  f8dfc140          LDR      r12,|L3.392|
00004a  f44f1700          MOV      r7,#0x200000
00004e  f8cc7000          STR      r7,[r12,#0]
                  |L3.82|
000052  688d              LDR      r5,[r1,#8]
000054  f0150f02          TST      r5,#2
000058  d0fb              BEQ      |L3.82|
00005a  60ca              STR      r2,[r1,#0xc]
                  |L3.92|
00005c  688a              LDR      r2,[r1,#8]
00005e  f0120f80          TST      r2,#0x80
000062  d0fb              BEQ      |L3.92|
                  |L3.100|
000064  688a              LDR      r2,[r1,#8]
000066  f0120f80          TST      r2,#0x80
00006a  d1fb              BNE      |L3.100|
00006c  2520              MOVS     r5,#0x20
00006e  f8cc5000          STR      r5,[r12,#0]
000072  b662              CPSIE    i
000074  ea4f2b1a          LSR      r11,r10,#8
                  |L3.120|
000078  688a              LDR      r2,[r1,#8]
00007a  f0120f02          TST      r2,#2
00007e  d0fb              BEQ      |L3.120|
000080  f8c1b00c          STR      r11,[r1,#0xc]
000084  f00a0aff          AND      r10,r10,#0xff
                  |L3.136|
000088  688a              LDR      r2,[r1,#8]
00008a  f0120f02          TST      r2,#2
00008e  d0fb              BEQ      |L3.136|
000090  f8c1a00c          STR      r10,[r1,#0xc]
000094  ea4f2a19          LSR      r10,r9,#8
                  |L3.152|
000098  688a              LDR      r2,[r1,#8]
00009a  f0120f02          TST      r2,#2
00009e  d0fb              BEQ      |L3.152|
0000a0  f8c1a00c          STR      r10,[r1,#0xc]
0000a4  f00902ff          AND      r2,r9,#0xff
                  |L3.168|
0000a8  f8d19008          LDR      r9,[r1,#8]
0000ac  f0190f02          TST      r9,#2
0000b0  d0fa              BEQ      |L3.168|
0000b2  60ca              STR      r2,[r1,#0xc]
0000b4  222b              MOVS     r2,#0x2b
0000b6  b672              CPSID    i
                  |L3.184|
0000b8  f8d19008          LDR      r9,[r1,#8]
0000bc  f0190f80          TST      r9,#0x80
0000c0  d1fa              BNE      |L3.184|
0000c2  f8cc7000          STR      r7,[r12,#0]
0000c6  bf00              NOP      
                  |L3.200|
0000c8  f8d19008          LDR      r9,[r1,#8]
0000cc  f0190f02          TST      r9,#2
0000d0  d0fa              BEQ      |L3.200|
0000d2  60ca              STR      r2,[r1,#0xc]
                  |L3.212|
0000d4  688a              LDR      r2,[r1,#8]
0000d6  f0120f80          TST      r2,#0x80
0000da  d0fb              BEQ      |L3.212|
                  |L3.220|
0000dc  688a              LDR      r2,[r1,#8]
0000de  f0120f80          TST      r2,#0x80
0000e2  d1fb              BNE      |L3.220|
0000e4  f8cc5000          STR      r5,[r12,#0]
0000e8  b662              CPSIE    i
0000ea  ea4f2914          LSR      r9,r4,#8
                  |L3.238|
0000ee  688a              LDR      r2,[r1,#8]
0000f0  f0120f02          TST      r2,#2
0000f4  d0fb              BEQ      |L3.238|
0000f6  f8c1900c          STR      r9,[r1,#0xc]
0000fa  b2e4              UXTB     r4,r4
                  |L3.252|
0000fc  688a              LDR      r2,[r1,#8]
0000fe  f0120f02          TST      r2,#2
000102  d0fb              BEQ      |L3.252|
000104  60cc              STR      r4,[r1,#0xc]
000106  ea4f2418          LSR      r4,r8,#8
                  |L3.266|
00010a  688a              LDR      r2,[r1,#8]
00010c  f0120f02          TST      r2,#2
000110  d0fb              BEQ      |L3.266|
000112  60cc              STR      r4,[r1,#0xc]
000114  f00804ff          AND      r4,r8,#0xff
                  |L3.280|
000118  688a              LDR      r2,[r1,#8]
00011a  f0120f02          TST      r2,#2
00011e  d0fb              BEQ      |L3.280|
000120  60cc              STR      r4,[r1,#0xc]
000122  242c              MOVS     r4,#0x2c
000124  b672              CPSID    i
                  |L3.294|
000126  688a              LDR      r2,[r1,#8]
000128  f0120f80          TST      r2,#0x80
00012c  d1fb              BNE      |L3.294|
00012e  f8cc7000          STR      r7,[r12,#0]
                  |L3.306|
000132  688a              LDR      r2,[r1,#8]
000134  f0120f02          TST      r2,#2
000138  d0fb              BEQ      |L3.306|
00013a  60cc              STR      r4,[r1,#0xc]
                  |L3.316|
00013c  688a              LDR      r2,[r1,#8]
00013e  f0120f80          TST      r2,#0x80
000142  d0fb              BEQ      |L3.316|
                  |L3.324|
000144  688a              LDR      r2,[r1,#8]
000146  f0120f80          TST      r2,#0x80
00014a  d1fb              BNE      |L3.324|
00014c  f8cc5000          STR      r5,[r12,#0]
000150  b662              CPSIE    i
000152  490e              LDR      r1,|L3.396|
000154  680a              LDR      r2,[r1,#0]
000156  f4427280          ORR      r2,r2,#0x100
00015a  600a              STR      r2,[r1,#0]
;;;614    	
;;;615    	dma_circular_mode(TFT_DMA, 1);
;;;616    	dma_transfer(TFT_DMA, buf, w*h*2);
00015c  fb03f206          MUL      r2,r3,r6
000160  f64f73ff          MOV      r3,#0xffff
000164  ea030242          AND      r2,r3,r2,LSL #1
000168  60c8              STR      r0,[r1,#0xc]
00016a  604a              STR      r2,[r1,#4]
00016c  6808              LDR      r0,[r1,#0]
00016e  f0400001          ORR      r0,r0,#1
000172  6008              STR      r0,[r1,#0]
;;;617    }
000174  e8bd0ff0          POP      {r4-r11}
000178  4770              BX       lr
;;;618    void tft_double_push_pxbuf(void* buf, uint32_t x, uint32_t y, uint32_t w, uint32_t h) {
                          ENDP

00017a  0000              DCW      0x0000
                  |L3.380|
                          DCD      0x40026404
                  |L3.384|
                          DCD      0x4002640c
                  |L3.388|
                          DCD      0x40013000
                  |L3.392|
                          DCD      0x40020818
                  |L3.396|
                          DCD      0x40026488

                          AREA ||i.tft_clear||, CODE, READONLY, ALIGN=2

                  tft_clear PROC
;;;384      */
;;;385    void tft_clear(void){
000000  e92d03f0          PUSH     {r4-r9}
;;;386    	for(uint8_t y = 0; y < char_max_y; y++){
000004  481a              LDR      r0,|L4.112|
000006  f04f0c00          MOV      r12,#0
00000a  7881              LDRB     r1,[r0,#2]  ; char_max_y
00000c  2900              CMP      r1,#0
;;;387    		tft_clear_line(y);
;;;388    	}
;;;389    }
00000e  bf9c              ITT      LS
000010  e8bd03f0          POPLS    {r4-r9}
000014  4770              BXLS     lr
000016  4f17              LDR      r7,|L4.116|
000018  2620              MOVS     r6,#0x20
00001a  f50768c8          ADD      r8,r7,#0x640
00001e  f5075996          ADD      r9,r7,#0x12c0
                  |L4.34|
000022  7844              LDRB     r4,[r0,#1]  ; char_max_x
000024  b1d4              CBZ      r4,|L4.92|
000026  78c1              LDRB     r1,[r0,#3]  ; cur_screen
000028  eb0102c1          ADD      r2,r1,r1,LSL #3
00002c  eb021101          ADD      r1,r2,r1,LSL #4
000030  eb081581          ADD      r5,r8,r1,LSL #6
000034  eb071341          ADD      r3,r7,r1,LSL #5
000038  eb05024c          ADD      r2,r5,r12,LSL #1
00003c  eb091581          ADD      r5,r9,r1,LSL #6
000040  4463              ADD      r3,r3,r12
000042  eb05014c          ADD      r1,r5,r12,LSL #1
000046  bf00              NOP      
                  |L4.72|
000048  f8036b14          STRB     r6,[r3],#0x14
00004c  8945              LDRH     r5,[r0,#0xa]  ; curr_text_color
00004e  f8225b28          STRH     r5,[r2],#0x28
000052  88c5              LDRH     r5,[r0,#6]  ; curr_bg_color
000054  f8215b28          STRH     r5,[r1],#0x28
000058  1e64              SUBS     r4,r4,#1
00005a  d1f5              BNE      |L4.72|
                  |L4.92|
00005c  f10c0101          ADD      r1,r12,#1             ;386
000060  f0010cff          AND      r12,r1,#0xff          ;386
000064  7881              LDRB     r1,[r0,#2]            ;386  ; char_max_y
000066  458c              CMP      r12,r1                ;386
000068  d3db              BCC      |L4.34|
00006a  e8bd03f0          POP      {r4-r9}
00006e  4770              BX       lr
;;;390    
                          ENDP

                  |L4.112|
                          DCD      ||.data||
                  |L4.116|
                          DCD      ||.bss||

                          AREA ||i.tft_clear_line||, CODE, READONLY, ALIGN=2

                  tft_clear_line PROC
;;;371      */
;;;372    void tft_clear_line(uint8_t y){
000000  4913              LDR      r1,|L5.80|
000002  b430              PUSH     {r4,r5}
;;;373    	for (uint8_t x = 0; x < char_max_x; x++) {
000004  784a              LDRB     r2,[r1,#1]  ; char_max_x
000006  2a00              CMP      r2,#0                 ;372
;;;374    		text_buf[cur_screen][x][y] = ' ';
;;;375    		text_color_buf[cur_screen][x][y] = curr_text_color;
;;;376    		bg_color_buf[cur_screen][x][y] = curr_bg_color;
;;;377    	}
;;;378    }
000008  bf04              ITT      EQ
00000a  bc30              POPEQ    {r4,r5}
00000c  4770              BXEQ     lr
00000e  78cb              LDRB     r3,[r1,#3]            ;373  ; cur_screen
000010  eb030cc3          ADD      r12,r3,r3,LSL #3      ;373
000014  eb0c1403          ADD      r4,r12,r3,LSL #4      ;373
000018  4b0e              LDR      r3,|L5.84|
00001a  4d10              LDR      r5,|L5.92|
00001c  eb031344          ADD      r3,r3,r4,LSL #5       ;373
000020  eb030c00          ADD      r12,r3,r0             ;373
000024  4b0c              LDR      r3,|L5.88|
000026  eb031384          ADD      r3,r3,r4,LSL #6       ;373
00002a  eb030340          ADD      r3,r3,r0,LSL #1       ;373
00002e  eb051484          ADD      r4,r5,r4,LSL #6       ;373
000032  eb040040          ADD      r0,r4,r0,LSL #1       ;373
000036  2420              MOVS     r4,#0x20              ;374
                  |L5.56|
000038  f80c4b14          STRB     r4,[r12],#0x14        ;374
00003c  894d              LDRH     r5,[r1,#0xa]          ;375  ; curr_text_color
00003e  f8235b28          STRH     r5,[r3],#0x28         ;375
000042  88cd              LDRH     r5,[r1,#6]            ;376  ; curr_bg_color
000044  f8205b28          STRH     r5,[r0],#0x28         ;376
000048  1e52              SUBS     r2,r2,#1              ;376
00004a  d1f5              BNE      |L5.56|
00004c  bc30              POP      {r4,r5}
00004e  4770              BX       lr
;;;379    
                          ENDP

                  |L5.80|
                          DCD      ||.data||
                  |L5.84|
                          DCD      ||.bss||
                  |L5.88|
                          DCD      ||.bss||+0x640
                  |L5.92|
                          DCD      ||.bss||+0x12c0

                          AREA ||i.tft_dma_tx||, CODE, READONLY, ALIGN=2

                  tft_dma_tx PROC
;;;599    
;;;600    void tft_dma_tx(void* ptr, uint16_t size) {
000000  4a03              LDR      r2,|L6.16|
000002  60d0              STR      r0,[r2,#0xc]
000004  6051              STR      r1,[r2,#4]
000006  6810              LDR      r0,[r2,#0]
000008  f0400001          ORR      r0,r0,#1
00000c  6010              STR      r0,[r2,#0]
;;;601    	dma_transfer(TFT_DMA, ptr, size);
;;;602    }
00000e  4770              BX       lr
;;;603    void tft_dma_wait(void) {
                          ENDP

                  |L6.16|
                          DCD      0x40026488

                          AREA ||i.tft_dma_wait||, CODE, READONLY, ALIGN=2

                  tft_dma_wait PROC
;;;602    }
;;;603    void tft_dma_wait(void) {
000000  4804              LDR      r0,|L7.20|
                  |L7.2|
000002  6801              LDR      r1,[r0,#0]
000004  f4116f00          TST      r1,#0x800
000008  d0fb              BEQ      |L7.2|
;;;604    	// while (dma_flag_status(TFT_DMA,DMA_FLAG_TC) == 0);
;;;605    	// dma_clear_flag(TFT_DMA,DMA_FLAG_TC);
;;;606    	while (LL_DMA_IsActiveFlag_TC5(DMA2)==0);
;;;607    	LL_DMA_ClearFlag_TC5(DMA2);
00000a  4903              LDR      r1,|L7.24|
00000c  f44f6000          MOV      r0,#0x800
000010  6008              STR      r0,[r1,#0]
;;;608    }
000012  4770              BX       lr
;;;609    
                          ENDP

                  |L7.20|
                          DCD      0x40026404
                  |L7.24|
                          DCD      0x4002640c

                          AREA ||i.tft_double_push_pxbuf||, CODE, READONLY, ALIGN=2

                  tft_double_push_pxbuf PROC
;;;617    }
;;;618    void tft_double_push_pxbuf(void* buf, uint32_t x, uint32_t y, uint32_t w, uint32_t h) {
000000  e92d0ff0          PUSH     {r4-r11}
000004  f8dfc1a4          LDR      r12,|L8.428|
000008  f8dd5020          LDR.W    r5,[sp,#0x20]
                  |L8.12|
00000c  f8dc4000          LDR      r4,[r12,#0]
000010  f4146f00          TST      r4,#0x800
000014  d0fa              BEQ      |L8.12|
000016  4c66              LDR      r4,|L8.432|
000018  f44f6c00          MOV      r12,#0x800
00001c  f8c4c000          STR      r12,[r4,#0]
;;;619    	tft_dma_wait();
;;;620    	// TFT_DMA->CR &= (uint32_t)~DMA_SxCR_EN;
;;;621    
;;;622    	tft_set_region(x, y, w-1, h-1);
000020  fa1ff881          UXTH     r8,r1
000024  1e59              SUBS     r1,r3,#1
000026  fa1ffc82          UXTH     r12,r2
00002a  1e6a              SUBS     r2,r5,#1
00002c  4441              ADD      r1,r1,r8
00002e  fa1ff981          UXTH     r9,r1
000032  eb0c0102          ADD      r1,r12,r2
000036  b28f              UXTH     r7,r1
000038  262a              MOVS     r6,#0x2a
00003a  b672              CPSID    i
00003c  495d              LDR      r1,|L8.436|
                  |L8.62|
00003e  688a              LDR      r2,[r1,#8]
000040  f0120f80          TST      r2,#0x80
000044  d1fb              BNE      |L8.62|
000046  4a5c              LDR      r2,|L8.440|
000048  f44f1400          MOV      r4,#0x200000
00004c  f8c24000          STR.W    r4,[r2,#0]
                  |L8.80|
000050  f8d1a008          LDR      r10,[r1,#8]
000054  f01a0f02          TST      r10,#2
000058  d0fa              BEQ      |L8.80|
00005a  60ce              STR      r6,[r1,#0xc]
                  |L8.92|
00005c  688e              LDR      r6,[r1,#8]
00005e  f0160f80          TST      r6,#0x80
000062  d0fb              BEQ      |L8.92|
                  |L8.100|
000064  688e              LDR      r6,[r1,#8]
000066  f0160f80          TST      r6,#0x80
00006a  d1fb              BNE      |L8.100|
00006c  2620              MOVS     r6,#0x20
00006e  6016              STR      r6,[r2,#0]
000070  b662              CPSIE    i
000072  ea4f2b18          LSR      r11,r8,#8
000076  bf00              NOP      
                  |L8.120|
000078  f8d1a008          LDR      r10,[r1,#8]
00007c  f01a0f02          TST      r10,#2
000080  d0fa              BEQ      |L8.120|
000082  f8c1b00c          STR      r11,[r1,#0xc]
000086  f00808ff          AND      r8,r8,#0xff
00008a  bf00              NOP      
                  |L8.140|
00008c  f8d1a008          LDR      r10,[r1,#8]
000090  f01a0f02          TST      r10,#2
000094  d0fa              BEQ      |L8.140|
000096  f8c1800c          STR      r8,[r1,#0xc]
00009a  ea4f2a19          LSR      r10,r9,#8
00009e  bf00              NOP      
                  |L8.160|
0000a0  f8d18008          LDR      r8,[r1,#8]
0000a4  f0180f02          TST      r8,#2
0000a8  d0fa              BEQ      |L8.160|
0000aa  f8c1a00c          STR      r10,[r1,#0xc]
0000ae  f00909ff          AND      r9,r9,#0xff
0000b2  bf00              NOP      
                  |L8.180|
0000b4  f8d18008          LDR      r8,[r1,#8]
0000b8  f0180f02          TST      r8,#2
0000bc  d0fa              BEQ      |L8.180|
0000be  f8c1900c          STR      r9,[r1,#0xc]
0000c2  f04f082b          MOV      r8,#0x2b
0000c6  b672              CPSID    i
                  |L8.200|
0000c8  f8d19008          LDR      r9,[r1,#8]
0000cc  f0190f80          TST      r9,#0x80
0000d0  d1fa              BNE      |L8.200|
0000d2  6014              STR      r4,[r2,#0]
                  |L8.212|
0000d4  f8d19008          LDR      r9,[r1,#8]
0000d8  f0190f02          TST      r9,#2
0000dc  d0fa              BEQ      |L8.212|
0000de  f8c1800c          STR      r8,[r1,#0xc]
0000e2  bf00              NOP      
                  |L8.228|
0000e4  f8d18008          LDR      r8,[r1,#8]
0000e8  f0180f80          TST      r8,#0x80
0000ec  d0fa              BEQ      |L8.228|
0000ee  bf00              NOP      
                  |L8.240|
0000f0  f8d18008          LDR      r8,[r1,#8]
0000f4  f0180f80          TST      r8,#0x80
0000f8  d1fa              BNE      |L8.240|
0000fa  6016              STR      r6,[r2,#0]
0000fc  b662              CPSIE    i
0000fe  ea4f291c          LSR      r9,r12,#8
000102  bf00              NOP      
                  |L8.260|
000104  f8d18008          LDR      r8,[r1,#8]
000108  f0180f02          TST      r8,#2
00010c  d0fa              BEQ      |L8.260|
00010e  f8c1900c          STR      r9,[r1,#0xc]
000112  f00c08ff          AND      r8,r12,#0xff
000116  bf00              NOP      
                  |L8.280|
000118  f8d1c008          LDR      r12,[r1,#8]
00011c  f01c0f02          TST      r12,#2
000120  d0fa              BEQ      |L8.280|
000122  f8c1800c          STR      r8,[r1,#0xc]
000126  ea4f2817          LSR      r8,r7,#8
00012a  bf00              NOP      
                  |L8.300|
00012c  f8d1c008          LDR      r12,[r1,#8]
000130  f01c0f02          TST      r12,#2
000134  d0fa              BEQ      |L8.300|
000136  f8c1800c          STR      r8,[r1,#0xc]
00013a  b2ff              UXTB     r7,r7
                  |L8.316|
00013c  f8d1c008          LDR      r12,[r1,#8]
000140  f01c0f02          TST      r12,#2
000144  d0fa              BEQ      |L8.316|
000146  60cf              STR      r7,[r1,#0xc]
000148  272c              MOVS     r7,#0x2c
00014a  b672              CPSID    i
                  |L8.332|
00014c  f8d1c008          LDR      r12,[r1,#8]
000150  f01c0f80          TST      r12,#0x80
000154  d1fa              BNE      |L8.332|
000156  6014              STR      r4,[r2,#0]
                  |L8.344|
000158  f8d1c008          LDR      r12,[r1,#8]
00015c  f01c0f02          TST      r12,#2
000160  d0fa              BEQ      |L8.344|
000162  60cf              STR      r7,[r1,#0xc]
                  |L8.356|
000164  f8d1c008          LDR      r12,[r1,#8]
000168  f01c0f80          TST      r12,#0x80
00016c  d0fa              BEQ      |L8.356|
00016e  bf00              NOP      
                  |L8.368|
000170  f8d1c008          LDR      r12,[r1,#8]
000174  f01c0f80          TST      r12,#0x80
000178  d1fa              BNE      |L8.368|
00017a  6016              STR      r6,[r2,#0]
00017c  b662              CPSIE    i
;;;623    
;;;624    	uint32_t ptr = (uint32_t)buf;
;;;625    	TFT_DMA->M0AR = ptr;
00017e  490f              LDR      r1,|L8.444|
000180  6008              STR      r0,[r1,#0]
;;;626    	TFT_DMA->M1AR = ptr+(w*h);  
000182  fb030005          MLA      r0,r3,r5,r0
000186  1d09              ADDS     r1,r1,#4
000188  6008              STR      r0,[r1,#0]
;;;627    	TFT_DMA->NDTR = w*h;
00018a  490d              LDR      r1,|L8.448|
00018c  fb03f005          MUL      r0,r3,r5
000190  6008              STR      r0,[r1,#0]
000192  1f08              SUBS     r0,r1,#4
000194  6801              LDR      r1,[r0,#0]
000196  f4412180          ORR      r1,r1,#0x40000
00019a  6001              STR      r1,[r0,#0]
;;;628    	dma_doublebuf_mode(TFT_DMA, 1);
;;;629    	TFT_DMA->CR |= (uint32_t)DMA_SxCR_EN;
00019c  6801              LDR      r1,[r0,#0]
00019e  f0410101          ORR      r1,r1,#1
0001a2  6001              STR      r1,[r0,#0]
;;;630    }
0001a4  e8bd0ff0          POP      {r4-r11}
0001a8  4770              BX       lr
;;;631    void tft_push_pxbuf(void* buf, uint32_t x, uint32_t y, uint32_t w, uint32_t h) {
                          ENDP

0001aa  0000              DCW      0x0000
                  |L8.428|
                          DCD      0x40026404
                  |L8.432|
                          DCD      0x4002640c
                  |L8.436|
                          DCD      0x40013000
                  |L8.440|
                          DCD      0x40020818
                  |L8.444|
                          DCD      0x40026494
                  |L8.448|
                          DCD      0x4002648c

                          AREA ||i.tft_fill_color||, CODE, READONLY, ALIGN=2

                  tft_fill_color PROC
;;;418      */
;;;419    void tft_fill_color(uint16_t color) {
000000  e92d03f0          PUSH     {r4-r9}
;;;420    	if (tft_orientation % 2)
000004  499e              LDR      r1,|L9.640|
000006  4a9f              LDR      r2,|L9.644|
000008  f44f1c00          MOV      r12,#0x200000
00000c  7809              LDRB     r1,[r1,#0]  ; tft_orientation
00000e  f04f0320          MOV      r3,#0x20
000012  f0110f01          TST      r1,#1
000016  499c              LDR      r1,|L9.648|
000018  d07d              BEQ      |L9.278|
;;;421    		tft_set_region(0, 0, MAX_HEIGHT, MAX_WIDTH);
00001a  2600              MOVS     r6,#0
00001c  4634              MOV      r4,r6
00001e  f44f77a0          MOV      r7,#0x140
000022  25f0              MOVS     r5,#0xf0
000024  f04f082a          MOV      r8,#0x2a
000028  b672              CPSID    i
00002a  bf00              NOP      
                  |L9.44|
00002c  f8d19008          LDR      r9,[r1,#8]
000030  f0190f80          TST      r9,#0x80
000034  d1fa              BNE      |L9.44|
000036  f8c2c000          STR      r12,[r2,#0]
00003a  bf00              NOP      
                  |L9.60|
00003c  f8d19008          LDR      r9,[r1,#8]
000040  f0190f02          TST      r9,#2
000044  d0fa              BEQ      |L9.60|
000046  f8c1800c          STR      r8,[r1,#0xc]
00004a  bf00              NOP      
                  |L9.76|
00004c  f8d18008          LDR      r8,[r1,#8]
000050  f0180f80          TST      r8,#0x80
000054  d0fa              BEQ      |L9.76|
000056  bf00              NOP      
                  |L9.88|
000058  f8d18008          LDR      r8,[r1,#8]
00005c  f0180f80          TST      r8,#0x80
000060  d1fa              BNE      |L9.88|
000062  6013              STR      r3,[r2,#0]
000064  b662              CPSIE    i
000066  ea4f2916          LSR      r9,r6,#8
00006a  bf00              NOP      
                  |L9.108|
00006c  f8d18008          LDR      r8,[r1,#8]
000070  f0180f02          TST      r8,#2
000074  d0fa              BEQ      |L9.108|
000076  f8c1900c          STR      r9,[r1,#0xc]
00007a  bf00              NOP      
                  |L9.124|
00007c  f8d18008          LDR      r8,[r1,#8]
000080  f0180f02          TST      r8,#2
000084  d0fa              BEQ      |L9.124|
000086  60ce              STR      r6,[r1,#0xc]
000088  ea5f2617          LSRS.W   r6,r7,#8
                  |L9.140|
00008c  f8d18008          LDR      r8,[r1,#8]
000090  f0180f02          TST      r8,#2
000094  d0fa              BEQ      |L9.140|
000096  60ce              STR      r6,[r1,#0xc]
000098  b2ff              UXTB     r7,r7
                  |L9.154|
00009a  688e              LDR      r6,[r1,#8]
00009c  f0160f02          TST      r6,#2
0000a0  d0fb              BEQ      |L9.154|
0000a2  60cf              STR      r7,[r1,#0xc]
0000a4  272b              MOVS     r7,#0x2b
0000a6  b672              CPSID    i
                  |L9.168|
0000a8  688e              LDR      r6,[r1,#8]
0000aa  f0160f80          TST      r6,#0x80
0000ae  d1fb              BNE      |L9.168|
0000b0  f8c2c000          STR      r12,[r2,#0]
                  |L9.180|
0000b4  688e              LDR      r6,[r1,#8]
0000b6  f0160f02          TST      r6,#2
0000ba  d0fb              BEQ      |L9.180|
0000bc  60cf              STR      r7,[r1,#0xc]
                  |L9.190|
0000be  688e              LDR      r6,[r1,#8]
0000c0  f0160f80          TST      r6,#0x80
0000c4  d0fb              BEQ      |L9.190|
                  |L9.198|
0000c6  688e              LDR      r6,[r1,#8]
0000c8  f0160f80          TST      r6,#0x80
0000cc  d1fb              BNE      |L9.198|
0000ce  6013              STR      r3,[r2,#0]
0000d0  b662              CPSIE    i
0000d2  0a27              LSRS     r7,r4,#8
                  |L9.212|
0000d4  688e              LDR      r6,[r1,#8]
0000d6  f0160f02          TST      r6,#2
0000da  d0fb              BEQ      |L9.212|
0000dc  60cf              STR      r7,[r1,#0xc]
                  |L9.222|
0000de  688e              LDR      r6,[r1,#8]
0000e0  f0160f02          TST      r6,#2
0000e4  d0fb              BEQ      |L9.222|
0000e6  60cc              STR      r4,[r1,#0xc]
0000e8  0a2e              LSRS     r6,r5,#8
                  |L9.234|
0000ea  688c              LDR      r4,[r1,#8]
0000ec  f0140f02          TST      r4,#2
0000f0  d0fb              BEQ      |L9.234|
0000f2  60ce              STR      r6,[r1,#0xc]
                  |L9.244|
0000f4  688c              LDR      r4,[r1,#8]
0000f6  f0140f02          TST      r4,#2
0000fa  d0fb              BEQ      |L9.244|
0000fc  60cd              STR      r5,[r1,#0xc]
0000fe  252c              MOVS     r5,#0x2c
000100  b672              CPSID    i
                  |L9.258|
000102  688c              LDR      r4,[r1,#8]
000104  f0140f80          TST      r4,#0x80
000108  d1fb              BNE      |L9.258|
00010a  f8c2c000          STR      r12,[r2,#0]
00010e  bf00              NOP      
                  |L9.272|
000110  f8d1c008          LDR      r12,[r1,#8]
000114  e000              B        |L9.280|
                  |L9.278|
000116  e00f              B        |L9.312|
                  |L9.280|
000118  f01c0f02          TST      r12,#2
00011c  d0f8              BEQ      |L9.272|
00011e  60cd              STR      r5,[r1,#0xc]
                  |L9.288|
000120  f8d1c008          LDR      r12,[r1,#8]
000124  f01c0f80          TST      r12,#0x80
000128  d0fa              BEQ      |L9.288|
00012a  bf00              NOP      
                  |L9.300|
00012c  f8d1c008          LDR      r12,[r1,#8]
000130  f01c0f80          TST      r12,#0x80
000134  d1fa              BNE      |L9.300|
000136  e08a              B        |L9.590|
                  |L9.312|
;;;422    	else
;;;423    		tft_set_region(0, 0, MAX_WIDTH, MAX_HEIGHT);
000138  2500              MOVS     r5,#0
00013a  462c              MOV      r4,r5
00013c  26f0              MOVS     r6,#0xf0
00013e  f44f77a0          MOV      r7,#0x140
000142  f04f082a          MOV      r8,#0x2a
000146  b672              CPSID    i
                  |L9.328|
000148  f8d19008          LDR      r9,[r1,#8]
00014c  f0190f80          TST      r9,#0x80
000150  d1fa              BNE      |L9.328|
000152  f8c2c000          STR      r12,[r2,#0]
000156  bf00              NOP      
                  |L9.344|
000158  f8d19008          LDR      r9,[r1,#8]
00015c  f0190f02          TST      r9,#2
000160  d0fa              BEQ      |L9.344|
000162  f8c1800c          STR      r8,[r1,#0xc]
000166  bf00              NOP      
                  |L9.360|
000168  f8d18008          LDR      r8,[r1,#8]
00016c  f0180f80          TST      r8,#0x80
000170  d0fa              BEQ      |L9.360|
000172  bf00              NOP      
                  |L9.372|
000174  f8d18008          LDR      r8,[r1,#8]
000178  f0180f80          TST      r8,#0x80
00017c  d1fa              BNE      |L9.372|
00017e  6013              STR      r3,[r2,#0]
000180  b662              CPSIE    i
000182  ea4f2915          LSR      r9,r5,#8
000186  bf00              NOP      
                  |L9.392|
000188  f8d18008          LDR      r8,[r1,#8]
00018c  f0180f02          TST      r8,#2
000190  d0fa              BEQ      |L9.392|
000192  f8c1900c          STR      r9,[r1,#0xc]
000196  bf00              NOP      
                  |L9.408|
000198  f8d18008          LDR      r8,[r1,#8]
00019c  f0180f02          TST      r8,#2
0001a0  d0fa              BEQ      |L9.408|
0001a2  60cd              STR      r5,[r1,#0xc]
0001a4  ea4f2816          LSR      r8,r6,#8
                  |L9.424|
0001a8  688d              LDR      r5,[r1,#8]
0001aa  f0150f02          TST      r5,#2
0001ae  d0fb              BEQ      |L9.424|
0001b0  f8c1800c          STR      r8,[r1,#0xc]
                  |L9.436|
0001b4  688d              LDR      r5,[r1,#8]
0001b6  f0150f02          TST      r5,#2
0001ba  d0fb              BEQ      |L9.436|
0001bc  60ce              STR      r6,[r1,#0xc]
0001be  252b              MOVS     r5,#0x2b
0001c0  b672              CPSID    i
                  |L9.450|
0001c2  688e              LDR      r6,[r1,#8]
0001c4  f0160f80          TST      r6,#0x80
0001c8  d1fb              BNE      |L9.450|
0001ca  f8c2c000          STR      r12,[r2,#0]
                  |L9.462|
0001ce  688e              LDR      r6,[r1,#8]
0001d0  f0160f02          TST      r6,#2
0001d4  d0fb              BEQ      |L9.462|
0001d6  60cd              STR      r5,[r1,#0xc]
                  |L9.472|
0001d8  688d              LDR      r5,[r1,#8]
0001da  f0150f80          TST      r5,#0x80
0001de  d0fb              BEQ      |L9.472|
                  |L9.480|
0001e0  688d              LDR      r5,[r1,#8]
0001e2  f0150f80          TST      r5,#0x80
0001e6  d1fb              BNE      |L9.480|
0001e8  6013              STR      r3,[r2,#0]
0001ea  b662              CPSIE    i
0001ec  0a26              LSRS     r6,r4,#8
                  |L9.494|
0001ee  688d              LDR      r5,[r1,#8]
0001f0  f0150f02          TST      r5,#2
0001f4  d0fb              BEQ      |L9.494|
0001f6  60ce              STR      r6,[r1,#0xc]
                  |L9.504|
0001f8  688d              LDR      r5,[r1,#8]
0001fa  f0150f02          TST      r5,#2
0001fe  d0fb              BEQ      |L9.504|
000200  60cc              STR      r4,[r1,#0xc]
000202  0a3d              LSRS     r5,r7,#8
                  |L9.516|
000204  688c              LDR      r4,[r1,#8]
000206  f0140f02          TST      r4,#2
00020a  d0fb              BEQ      |L9.516|
00020c  60cd              STR      r5,[r1,#0xc]
00020e  b2fd              UXTB     r5,r7
                  |L9.528|
000210  688c              LDR      r4,[r1,#8]
000212  f0140f02          TST      r4,#2
000216  d0fb              BEQ      |L9.528|
000218  60cd              STR      r5,[r1,#0xc]
00021a  252c              MOVS     r5,#0x2c
00021c  b672              CPSID    i
                  |L9.542|
00021e  688c              LDR      r4,[r1,#8]
000220  f0140f80          TST      r4,#0x80
000224  d1fb              BNE      |L9.542|
000226  f8c2c000          STR      r12,[r2,#0]
00022a  bf00              NOP      
                  |L9.556|
00022c  f8d1c008          LDR      r12,[r1,#8]
000230  f01c0f02          TST      r12,#2
000234  d0fa              BEQ      |L9.556|
000236  60cd              STR      r5,[r1,#0xc]
                  |L9.568|
000238  f8d1c008          LDR      r12,[r1,#8]
00023c  f01c0f80          TST      r12,#0x80
000240  d0fa              BEQ      |L9.568|
000242  bf00              NOP      
                  |L9.580|
000244  f8d1c008          LDR      r12,[r1,#8]
000248  f01c0f80          TST      r12,#0x80
00024c  d1fa              BNE      |L9.580|
                  |L9.590|
00024e  6013              STR      r3,[r2,#0]
000250  b662              CPSIE    i
;;;424    	
;;;425    	for (uint32_t i = 0; i < MAX_WIDTH*MAX_HEIGHT; i++) {
000252  f04f0c00          MOV      r12,#0
000256  0a04              LSRS     r4,r0,#8
                  |L9.600|
000258  688a              LDR      r2,[r1,#8]
00025a  f0120f02          TST      r2,#2
00025e  d0fb              BEQ      |L9.600|
000260  60cc              STR      r4,[r1,#0xc]
000262  b2c3              UXTB     r3,r0
                  |L9.612|
000264  688a              LDR      r2,[r1,#8]
000266  f0120f02          TST      r2,#2
00026a  d0fb              BEQ      |L9.612|
00026c  60cb              STR      r3,[r1,#0xc]
00026e  f10c0c01          ADD      r12,r12,#1
000272  f5bc3f96          CMP      r12,#0x12c00
000276  d3ef              BCC      |L9.600|
;;;426    		tft_write_color(color);
;;;427    	}
;;;428    }
000278  e8bd03f0          POP      {r4-r9}
00027c  4770              BX       lr
;;;429    
                          ENDP

00027e  0000              DCW      0x0000
                  |L9.640|
                          DCD      ||.data||
                  |L9.644|
                          DCD      0x40020818
                  |L9.648|
                          DCD      0x40013000

                          AREA ||i.tft_force_clear||, CODE, READONLY, ALIGN=2

                  tft_force_clear PROC
;;;434      */
;;;435    void tft_force_clear(void) {
000000  b570              PUSH     {r4-r6,lr}
;;;436    	for (uint8_t i = 0; i < CHAR_MAX_X; i++) {
;;;437    		for (uint8_t j = 0; j < CHAR_MAX_Y; j++) {
000002  4e0e              LDR      r6,|L10.60|
000004  2400              MOVS     r4,#0                 ;436
000006  bf00              NOP      
                  |L10.8|
000008  eb040084          ADD      r0,r4,r4,LSL #2
00000c  eb060080          ADD      r0,r6,r0,LSL #2
000010  4605              MOV      r5,r0
000012  2220              MOVS     r2,#0x20
000014  2114              MOVS     r1,#0x14
000016  f7fffffe          BL       __aeabi_memset
00001a  f5057048          ADD      r0,r5,#0x320
00001e  2220              MOVS     r2,#0x20
000020  2114              MOVS     r1,#0x14
000022  f7fffffe          BL       __aeabi_memset
000026  1c60              ADDS     r0,r4,#1
000028  b2c4              UXTB     r4,r0
00002a  2c28              CMP      r4,#0x28
00002c  d3ec              BCC      |L10.8|
;;;438    			text_buf[0][i][j] = ' ';
;;;439    			text_buf[1][i][j] = ' ';
;;;440    		}
;;;441    	}
;;;442    	tft_fill_color(curr_bg_color);
00002e  4804              LDR      r0,|L10.64|
000030  88c0              LDRH     r0,[r0,#6]  ; curr_bg_color
000032  e8bd4070          POP      {r4-r6,lr}
000036  f7ffbffe          B.W      tft_fill_color
;;;443    }
;;;444    
                          ENDP

00003a  0000              DCW      0x0000
                  |L10.60|
                          DCD      ||.bss||
                  |L10.64|
                          DCD      ||.data||

                          AREA ||i.tft_get_orientation||, CODE, READONLY, ALIGN=2

                  tft_get_orientation PROC
;;;332    
;;;333    uint8_t tft_get_orientation() {
000000  4801              LDR      r0,|L11.8|
;;;334    	return tft_orientation;
000002  7800              LDRB     r0,[r0,#0]  ; tft_orientation
;;;335    }
000004  4770              BX       lr
;;;336    
                          ENDP

000006  0000              DCW      0x0000
                  |L11.8|
                          DCD      ||.data||

                          AREA ||i.tft_init||, CODE, READONLY, ALIGN=2

                  tft_init PROC
;;;246      */
;;;247    void tft_init(TFT_ORIENTATION orientation, uint16_t in_bg_color, uint16_t in_text_color, uint16_t in_text_color_sp, uint16_t in_highlight_color) { //, DISPLAY_MODE mode) {
000000  e92d4fff          PUSH     {r0-r11,lr}
;;;248    	//cur_display_mode = mode;
;;;249    	
;;;250    	cur_screen = 0;
000004  485f              LDR      r0,|L12.388|
000006  2200              MOVS     r2,#0
000008  f8dde034          LDR      lr,[sp,#0x34]
00000c  70c2              STRB     r2,[r0,#3]
;;;251    	next_screen = 1;
00000e  2201              MOVS     r2,#1
000010  7102              STRB     r2,[r0,#4]
000012  4d5d              LDR      r5,|L12.392|
;;;252    	tft_orientation = orientation;
000014  9f00              LDR      r7,[sp,#0]
000016  7007              STRB     r7,[r0,#0]
000018  686a              LDR      r2,[r5,#4]
00001a  f0420202          ORR      r2,r2,#2
00001e  606a              STR      r2,[r5,#4]
000020  4b5b              LDR      r3,|L12.400|
000022  4a5a              LDR      r2,|L12.396|
000024  601a              STR      r2,[r3,#0]
000026  682a              LDR      r2,[r5,#0]
000028  f0420240          ORR      r2,r2,#0x40
00002c  602a              STR      r2,[r5,#0]
00002e  4b59              LDR      r3,|L12.404|
000030  2220              MOVS     r2,#0x20
000032  619a              STR      r2,[r3,#0x18]
000034  f8dfc160          LDR      r12,|L12.408|
000038  0452              LSLS     r2,r2,#17
00003a  f8cc2018          STR      r2,[r12,#0x18]
00003e  01d4              LSLS     r4,r2,#7
000040  4a56              LDR      r2,|L12.412|
000042  f04f0c10          MOV      r12,#0x10
000046  60d4              STR      r4,[r2,#0xc]
000048  f8c2c004          STR      r12,[r2,#4]
00004c  f8d2c000          LDR      r12,[r2,#0]
000050  f04c0c01          ORR      r12,r12,#1
000054  f8c2c000          STR      r12,[r2,#0]
000058  2210              MOVS     r2,#0x10
00005a  619a              STR      r2,[r3,#0x18]
00005c  4e50              LDR      r6,|L12.416|
00005e  2264              MOVS     r2,#0x64
000060  6032              STR      r2,[r6,#0]  ; __delay
                  |L12.98|
000062  6832              LDR      r2,[r6,#0]  ; __delay
000064  2a00              CMP      r2,#0
000066  d1fc              BNE      |L12.98|
000068  f8df8138          LDR      r8,|L12.420|
00006c  f44f1280          MOV      r2,#0x100000
000070  f8c82000          STR      r2,[r8,#0]
000074  2264              MOVS     r2,#0x64
000076  6032              STR      r2,[r6,#0]  ; __delay
                  |L12.120|
000078  6832              LDR      r2,[r6,#0]  ; __delay
00007a  2a00              CMP      r2,#0
00007c  d1fc              BNE      |L12.120|
00007e  2210              MOVS     r2,#0x10
000080  619a              STR      r2,[r3,#0x18]
000082  2264              MOVS     r2,#0x64
000084  6032              STR      r2,[r6,#0]  ; __delay
                  |L12.134|
000086  6832              LDR      r2,[r6,#0]  ; __delay
000088  2a00              CMP      r2,#0
00008a  d1fc              BNE      |L12.134|
00008c  f8dfc118          LDR      r12,|L12.424|
000090  2401              MOVS     r4,#1
000092  f89c2001          LDRB     r2,[r12,#1]
000096  2a42              CMP      r2,#0x42
000098  d040              BEQ      |L12.284|
00009a  f44f1900          MOV      r9,#0x200000
00009e  f04f0a20          MOV      r10,#0x20
0000a2  f6ac6b04          SUB      r11,r12,#0xe04
0000a6  bf00              NOP      
                  |L12.168|
0000a8  f81c3004          LDRB     r3,[r12,r4]
0000ac  b672              CPSID    i
                  |L12.174|
0000ae  68aa              LDR      r2,[r5,#8]
0000b0  f0120f80          TST      r2,#0x80
0000b4  d1fb              BNE      |L12.174|
0000b6  f8c89000          STR      r9,[r8,#0]
                  |L12.186|
0000ba  68aa              LDR      r2,[r5,#8]
0000bc  f0120f02          TST      r2,#2
0000c0  d0fb              BEQ      |L12.186|
0000c2  60eb              STR      r3,[r5,#0xc]
                  |L12.196|
0000c4  68aa              LDR      r2,[r5,#8]
0000c6  f0120f80          TST      r2,#0x80
0000ca  d0fb              BEQ      |L12.196|
                  |L12.204|
0000cc  68aa              LDR      r2,[r5,#8]
0000ce  f0120f80          TST      r2,#0x80
0000d2  d1fb              BNE      |L12.204|
0000d4  f8c8a000          STR      r10,[r8,#0]
0000d8  b662              CPSIE    i
0000da  2b36              CMP      r3,#0x36
0000dc  bf08              IT       EQ
0000de  f81b3007          LDRBEQ   r3,[r11,r7]
0000e2  d104              BNE      |L12.238|
                  |L12.228|
0000e4  68aa              LDR      r2,[r5,#8]
0000e6  f0120f02          TST      r2,#2
0000ea  d0fb              BEQ      |L12.228|
0000ec  60eb              STR      r3,[r5,#0xc]
                  |L12.238|
0000ee  1c62              ADDS     r2,r4,#1
0000f0  f81c3002          LDRB     r3,[r12,r2]
0000f4  2b43              CMP      r3,#0x43
0000f6  d00c              BEQ      |L12.274|
                  |L12.248|
0000f8  b2dc              UXTB     r4,r3
0000fa  2cff              CMP      r4,#0xff
0000fc  d03a              BEQ      |L12.372|
                  |L12.254|
0000fe  68ab              LDR      r3,[r5,#8]
000100  f0130f02          TST      r3,#2
000104  d0fb              BEQ      |L12.254|
000106  60ec              STR      r4,[r5,#0xc]
                  |L12.264|
000108  1c52              ADDS     r2,r2,#1
00010a  f81c3002          LDRB     r3,[r12,r2]
00010e  2b43              CMP      r3,#0x43
000110  d1f2              BNE      |L12.248|
                  |L12.274|
000112  1c54              ADDS     r4,r2,#1
000114  f81c2004          LDRB     r2,[r12,r4]
000118  2a42              CMP      r2,#0x42
00011a  d1c5              BNE      |L12.168|
                  |L12.284|
00011c  4604              MOV      r4,r0
00011e  80c1              STRH     r1,[r0,#6]
000120  9802              LDR      r0,[sp,#8]
000122  8160              STRH     r0,[r4,#0xa]
000124  9803              LDR      r0,[sp,#0xc]
000126  81a0              STRH     r0,[r4,#0xc]
000128  f8a4e008          STRH     lr,[r4,#8]
;;;253    
;;;254    	#ifdef MODEL_ST7735
;;;255    	switch (tft_orientation) {
;;;256    		case 0:
;;;257    		col_shift = 2;
;;;258    		row_shift = 1;
;;;259    		break;
;;;260    		case 1:
;;;261    		col_shift = 1;
;;;262    		row_shift = 2;
;;;263    		break;
;;;264    		case 2:
;;;265    		col_shift = 2;
;;;266    		row_shift = 2;
;;;267    		break;
;;;268    		case 3:
;;;269    		col_shift = 1;
;;;270    		row_shift = 2;
;;;271    		break;
;;;272    	}
;;;273    	#endif
;;;274    
;;;275    	tft_config();
;;;276    	
;;;277    	tft_set_bg_color(in_bg_color);
;;;278    	tft_set_text_color(in_text_color);
;;;279    	tft_set_special_color(in_text_color_sp);
;;;280    	tft_set_highlight_color(in_highlight_color);
;;;281    
;;;282    	tft_fill_color(in_bg_color);
00012c  4608              MOV      r0,r1
00012e  f7fffffe          BL       tft_fill_color
;;;283    	delay(1);
000132  2001              MOVS     r0,#1
000134  6030              STR      r0,[r6,#0]  ; __delay
                  |L12.310|
000136  6831              LDR      r1,[r6,#0]  ; __delay
000138  2900              CMP      r1,#0
00013a  d1fc              BNE      |L12.310|
;;;284    
;;;285    	char_max_x = (orientation % 2) ? CHAR_MAX_X_HORIZONTAL : CHAR_MAX_X_VERTICAL;
00013c  9800              LDR      r0,[sp,#0]
00013e  f0000001          AND      r0,r0,#1
000142  2800              CMP      r0,#0
000144  bf14              ITE      NE
000146  2028              MOVNE    r0,#0x28
000148  201e              MOVEQ    r0,#0x1e
00014a  7060              STRB     r0,[r4,#1]
;;;286    	char_max_y = (orientation % 2) ? CHAR_MAX_Y_HORIZONTAL : CHAR_MAX_Y_VERTICAL;
00014c  bf14              ITE      NE
00014e  200f              MOVNE    r0,#0xf
000150  2014              MOVEQ    r0,#0x14
000152  70a0              STRB     r0,[r4,#2]
;;;287    
;;;288    	row_width = (orientation%2) ? MAX_HEIGHT : MAX_WIDTH;
000154  bf14              ITE      NE
000156  f44f70a0          MOVNE    r0,#0x140
00015a  20f0              MOVEQ    r0,#0xf0
00015c  81e0              STRH     r0,[r4,#0xe]
;;;289    	
;;;290    	tft_clear();
00015e  f7fffffe          BL       tft_clear
;;;291    	cur_screen = 1;
000162  2001              MOVS     r0,#1
000164  70e0              STRB     r0,[r4,#3]
;;;292    	tft_clear();
000166  f7fffffe          BL       tft_clear
;;;293    	cur_screen = 0;
00016a  2000              MOVS     r0,#0
00016c  70e0              STRB     r0,[r4,#3]
;;;294    	// tft_update();
;;;295    }
00016e  b004              ADD      sp,sp,#0x10
000170  e8bd8ff0          POP      {r4-r11,pc}
                  |L12.372|
000174  1c52              ADDS     r2,r2,#1
000176  f81c3002          LDRB     r3,[r12,r2]
00017a  6033              STR      r3,[r6,#0]  ; __delay
                  |L12.380|
00017c  6833              LDR      r3,[r6,#0]  ; __delay
00017e  2b00              CMP      r3,#0
000180  d1fc              BNE      |L12.380|
000182  e7c1              B        |L12.264|
;;;296    
                          ENDP

                  |L12.388|
                          DCD      ||.data||
                  |L12.392|
                          DCD      0x40013000
                  |L12.396|
                          DCD      0x4001300c
                  |L12.400|
                          DCD      0x40026490
                  |L12.404|
                          DCD      0x40020800
                  |L12.408|
                          DCD      0x40020000
                  |L12.412|
                          DCD      0x40026488
                  |L12.416|
                          DCD      __delay
                  |L12.420|
                          DCD      0x40020818
                  |L12.424|
                          DCD      ||.constdata||+0xe04

                          AREA ||i.tft_printb||, CODE, READONLY, ALIGN=2

                  tft_printb PROC
;;;504    
;;;505    void tft_printb(uint8_t x, uint8_t y, uint32_t b, uint8_t bits) {
000000  b570              PUSH     {r4-r6,lr}
000002  b08a              SUB      sp,sp,#0x28
;;;506    	char buf[33]={0};
000004  f04f0c00          MOV      r12,#0
000008  f8cdc000          STR      r12,[sp,#0]
00000c  f8cdc004          STR      r12,[sp,#4]
000010  f8cdc008          STR      r12,[sp,#8]
000014  f8cdc00c          STR      r12,[sp,#0xc]
000018  f8cdc010          STR      r12,[sp,#0x10]
00001c  f8cdc014          STR      r12,[sp,#0x14]
000020  f8cdc018          STR      r12,[sp,#0x18]
000024  f8cdc01c          STR      r12,[sp,#0x1c]
000028  f8cdc020          STR      r12,[sp,#0x20]        ;505
00002c  b34b              CBZ      r3,|L13.130|
;;;507    
;;;508    	for(int i=0; i<bits; i++) {
00002e  f10d34ff          ADD      r4,sp,#0xffffffff
;;;509    		buf[i] = '0' + ((b & (1<<i)) != 0);
;;;510    	}
;;;511    	
;;;512    	tft_printc(x, y, buf);
;;;513    }
000032  f0130f01          TST      r3,#1
000036  f04f0501          MOV      r5,#1                 ;509
00003a  d00a              BEQ      |L13.82|
00003c  f0120c01          ANDS     r12,r2,#1             ;509
000040  bf18              IT       NE                    ;509
000042  f04f0c01          MOVNE    r12,#1                ;509
000046  f10c0c30          ADD      r12,r12,#0x30         ;509
00004a  f804cf01          STRB     r12,[r4,#1]!          ;509
00004e  f04f0c01          MOV      r12,#1
                  |L13.82|
000052  085b              LSRS     r3,r3,#1              ;508
000054  d015              BEQ      |L13.130|
000056  bf00              NOP                            ;509
                  |L13.88|
000058  fa05f60c          LSL      r6,r5,r12             ;509
00005c  4016              ANDS     r6,r6,r2              ;509
00005e  bf18              IT       NE                    ;509
000060  2601              MOVNE    r6,#1                 ;509
000062  3630              ADDS     r6,r6,#0x30           ;509
000064  7066              STRB     r6,[r4,#1]            ;509
000066  f10c0601          ADD      r6,r12,#1             ;509
00006a  fa05f606          LSL      r6,r5,r6              ;509
00006e  4016              ANDS     r6,r6,r2              ;509
000070  bf18              IT       NE                    ;509
000072  2601              MOVNE    r6,#1                 ;509
000074  3630              ADDS     r6,r6,#0x30           ;509
000076  f8046f02          STRB     r6,[r4,#2]!           ;509
00007a  1e5b              SUBS     r3,r3,#1              ;509
00007c  f10c0c02          ADD      r12,r12,#2            ;509
000080  d1ea              BNE      |L13.88|
                  |L13.130|
000082  466a              MOV      r2,sp                 ;512
000084  f7fffffe          BL       tft_printc
000088  b00a              ADD      sp,sp,#0x28
00008a  bd70              POP      {r4-r6,pc}
;;;514    void tft_printh(uint8_t x, uint8_t y, uint32_t b, uint8_t bits) {
                          ENDP


                          AREA ||i.tft_printf||, CODE, READONLY, ALIGN=2

                  tft_printf PROC
;;;544    
;;;545    void tft_printf(uint8_t x, uint8_t y, float num, uint32_t dp) {
000000  e92d41f0          PUSH     {r4-r8,lr}
000004  eefd0ac0          VCVT.S32.F32 s1,s0
000008  eeb50ac0          VCMPE.F32 s0,#0.0
00000c  242d              MOVS     r4,#0x2d
00000e  ee10ca90          VMOV     r12,s1
000012  eef1fa10          VMRS     APSR_nzcv,FPSCR
000016  b08e              SUB      sp,sp,#0x38
;;;546    	char buf[40];
;;;547    
;;;548    	ftos(buf, num, dp);
000018  466b              MOV      r3,sp
00001a  d20d              BCS      |L14.56|
00001c  f1cc0c00          RSB      r12,r12,#0            ;545
000020  eef10a40          VNEG.F32 s1,s0                 ;545
000024  ee00ca10          VMOV     s0,r12                ;545
000028  f88d4000          STRB     r4,[sp,#0]            ;545
00002c  1c5b              ADDS     r3,r3,#1              ;545
00002e  eeb80ac0          VCVT.F32.S32 s0,s0                 ;545
000032  ee300ac0          VSUB.F32 s0,s1,s0              ;545
000036  e005              B        |L14.68|
                  |L14.56|
000038  ee00ca90          VMOV     s1,r12                ;545
00003c  eef80ae0          VCVT.F32.S32 s1,s1                 ;545
000040  ee300a60          VSUB.F32 s0,s0,s1              ;545
                  |L14.68|
000044  f1bc0f00          CMP      r12,#0                ;545
000048  da03              BGE      |L14.82|
00004a  f1cc0c00          RSB      r12,r12,#0            ;545
00004e  f8034b01          STRB     r4,[r3],#1            ;545
                  |L14.82|
000052  2500              MOVS     r5,#0                 ;545
000054  f8df80e0          LDR      r8,|L14.312|
000058  950a              STR      r5,[sp,#0x28]         ;545
00005a  950b              STR      r5,[sp,#0x2c]         ;545
00005c  950c              STR      r5,[sp,#0x30]         ;545
00005e  f10d0429          ADD      r4,sp,#0x29           ;545
000062  950d              STR      r5,[sp,#0x34]         ;545
                  |L14.100|
000064  fb88670c          SMULL    r6,r7,r8,r12          ;545
000068  10be              ASRS     r6,r7,#2              ;545
00006a  eba677e7          SUB      r7,r6,r7,ASR #31      ;545
00006e  427e              RSBS     r6,r7,#0              ;545
000070  eb060686          ADD      r6,r6,r6,LSL #2       ;545
000074  eb0c0c46          ADD      r12,r12,r6,LSL #1     ;545
000078  f10c0c30          ADD      r12,r12,#0x30         ;545
00007c  f804cb01          STRB     r12,[r4],#1           ;545
000080  ea5f0c07          MOVS     r12,r7                ;545
000084  d1ee              BNE      |L14.100|
000086  f814cd01          LDRB     r12,[r4,#-1]!         ;545
00008a  f1bc0f00          CMP      r12,#0                ;545
00008e  d006              BEQ      |L14.158|
                  |L14.144|
000090  f803cb01          STRB     r12,[r3],#1           ;545
000094  f814cd01          LDRB     r12,[r4,#-1]!         ;545
000098  f1bc0f00          CMP      r12,#0                ;545
00009c  d1f8              BNE      |L14.144|
                  |L14.158|
00009e  f04f0c2e          MOV      r12,#0x2e             ;545
0000a2  f803cb01          STRB     r12,[r3],#1           ;545
0000a6  eef20a04          VMOV.F32 s1,#10.00000000       ;545
0000aa  2a00              CMP      r2,#0                 ;545
0000ac  bfd8              IT       LE                    ;545
0000ae  f04f0c00          MOVLE    r12,#0                ;545
0000b2  dd04              BLE      |L14.190|
0000b4  f0120c01          ANDS     r12,r2,#1             ;545
0000b8  bf18              IT       NE                    ;545
0000ba  ee200a20          VMULNE.F32 s0,s0,s1              ;545
                  |L14.190|
0000be  eba2020c          SUB      r2,r2,r12             ;545
0000c2  2a00              CMP      r2,#0                 ;545
0000c4  dd07              BLE      |L14.214|
0000c6  bf00              NOP                            ;545
                  |L14.200|
0000c8  ee200a20          VMUL.F32 s0,s0,s1              ;545
0000cc  1e92              SUBS     r2,r2,#2              ;545
0000ce  2a00              CMP      r2,#0                 ;545
0000d0  ee200a20          VMUL.F32 s0,s0,s1              ;545
0000d4  dcf8              BGT      |L14.200|
                  |L14.214|
0000d6  eef60a00          VMOV.F32 s1,#0.50000000        ;545
0000da  4e18              LDR      r6,|L14.316|
0000dc  ee300a20          VADD.F32 s0,s0,s1              ;545
0000e0  950a              STR      r5,[sp,#0x28]         ;545
0000e2  950b              STR      r5,[sp,#0x2c]         ;545
0000e4  950c              STR      r5,[sp,#0x30]         ;545
0000e6  eebc0ac0          VCVT.U32.F32 s0,s0                 ;545
0000ea  f10d0229          ADD      r2,sp,#0x29           ;545
0000ee  950d              STR      r5,[sp,#0x34]         ;545
0000f0  ee10ca10          VMOV     r12,s0                ;545
                  |L14.244|
0000f4  fba6740c          UMULL    r7,r4,r6,r12          ;545
0000f8  08e4              LSRS     r4,r4,#3              ;545
0000fa  4267              RSBS     r7,r4,#0              ;545
0000fc  eb070787          ADD      r7,r7,r7,LSL #2       ;545
000100  eb0c0c47          ADD      r12,r12,r7,LSL #1     ;545
000104  f10c0c30          ADD      r12,r12,#0x30         ;545
000108  f802cb01          STRB     r12,[r2],#1           ;545
00010c  ea5f0c04          MOVS     r12,r4                ;545
000110  d1f0              BNE      |L14.244|
000112  f812cd01          LDRB     r12,[r2,#-1]!         ;545
000116  f1bc0f00          CMP      r12,#0                ;545
00011a  d006              BEQ      |L14.298|
                  |L14.284|
00011c  f803cb01          STRB     r12,[r3],#1           ;545
000120  f812cd01          LDRB     r12,[r2,#-1]!         ;545
000124  f1bc0f00          CMP      r12,#0                ;545
000128  d1f8              BNE      |L14.284|
                  |L14.298|
00012a  701d              STRB     r5,[r3,#0]            ;545
;;;549    
;;;550    	tft_printc(x, y, buf);
00012c  466a              MOV      r2,sp
00012e  f7fffffe          BL       tft_printc
;;;551    }
000132  b00e              ADD      sp,sp,#0x38
000134  e8bd81f0          POP      {r4-r8,pc}
;;;552    
                          ENDP

                  |L14.312|
                          DCD      0x66666667
                  |L14.316|
                          DCD      0xcccccccd

                          AREA ||i.tft_printh||, CODE, READONLY, ALIGN=1

                  tft_printh PROC
;;;513    }
;;;514    void tft_printh(uint8_t x, uint8_t y, uint32_t b, uint8_t bits) {
000000  b5f0              PUSH     {r4-r7,lr}
000002  b083              SUB      sp,sp,#0xc
;;;515    	char buf[9]={0};
000004  f04f0c00          MOV      r12,#0
000008  f8cdc000          STR      r12,[sp,#0]
00000c  f8cdc004          STR      r12,[sp,#4]
;;;516    	int c = bits/4-1;
000010  f8cdc008          STR      r12,[sp,#8]
000014  f04f3cff          MOV      r12,#0xffffffff
000018  eb0c0c93          ADD      r12,r12,r3,LSR #2
00001c  1cdb              ADDS     r3,r3,#3
;;;517    	for(int i=0; i<bits; i+=4) {
00001e  089b              LSRS     r3,r3,#2
000020  2b00              CMP      r3,#0
000022  dd13              BLE      |L15.76|
000024  2400              MOVS     r4,#0
000026  44ec              ADD      r12,r12,sp
;;;518    		uint8_t tmp = (b & (0xF<<i))>>i;
000028  260f              MOVS     r6,#0xf
                  |L15.42|
00002a  00a5              LSLS     r5,r4,#2
00002c  fa06f705          LSL      r7,r6,r5
000030  4017              ANDS     r7,r7,r2
000032  fa27f505          LSR      r5,r7,r5
000036  b2ed              UXTB     r5,r5
;;;519    		if (tmp < 10) 
000038  2d0a              CMP      r5,#0xa
00003a  bf34              ITE      CC
00003c  3530              ADDCC    r5,r5,#0x30
00003e  3537              ADDCS    r5,r5,#0x37
;;;520    			buf[c] = '0' + tmp;
;;;521    		else 
;;;522    			buf[c] = 'A' + tmp-10;
000040  f80c5901          STRB     r5,[r12],#-1
000044  1e5b              SUBS     r3,r3,#1
000046  f1040401          ADD      r4,r4,#1
00004a  d1ee              BNE      |L15.42|
                  |L15.76|
;;;523    		c--;
;;;524    	}
;;;525    	
;;;526    	tft_printc(x, y, buf);
00004c  466a              MOV      r2,sp
00004e  f7fffffe          BL       tft_printc
;;;527    }
000052  b003              ADD      sp,sp,#0xc
000054  bdf0              POP      {r4-r7,pc}
;;;528    
                          ENDP


                          AREA ||i.tft_printi||, CODE, READONLY, ALIGN=2

                  tft_printi PROC
;;;496    
;;;497    void tft_printi(uint8_t x, uint8_t y, int32_t num) {
000000  b5f0              PUSH     {r4-r7,lr}
000002  b087              SUB      sp,sp,#0x1c
;;;498    	char buf[12]={0};
000004  2500              MOVS     r5,#0
000006  9500              STR      r5,[sp,#0]
000008  9501              STR      r5,[sp,#4]
;;;499    
;;;500    	itos(buf, num);
00000a  46ec              MOV      r12,sp
00000c  9502              STR      r5,[sp,#8]
00000e  2a00              CMP      r2,#0
000010  da05              BGE      |L16.30|
000012  4252              RSBS     r2,r2,#0              ;497
000014  232d              MOVS     r3,#0x2d              ;497
000016  f88d3000          STRB     r3,[sp,#0]            ;497
00001a  f10c0c01          ADD      r12,r12,#1            ;497
                  |L16.30|
00001e  4e13              LDR      r6,|L16.108|
000020  9503              STR      r5,[sp,#0xc]          ;497
000022  9504              STR      r5,[sp,#0x10]         ;497
000024  9505              STR      r5,[sp,#0x14]         ;497
000026  f10d030d          ADD      r3,sp,#0xd            ;497
00002a  9506              STR      r5,[sp,#0x18]         ;497
                  |L16.44|
00002c  fb867402          SMULL    r7,r4,r6,r2           ;497
000030  10a7              ASRS     r7,r4,#2              ;497
000032  eba774e4          SUB      r4,r7,r4,ASR #31      ;497
000036  4267              RSBS     r7,r4,#0              ;497
000038  eb070787          ADD      r7,r7,r7,LSL #2       ;497
00003c  eb020247          ADD      r2,r2,r7,LSL #1       ;497
000040  3230              ADDS     r2,r2,#0x30           ;497
000042  f8032b01          STRB     r2,[r3],#1            ;497
000046  0022              MOVS     r2,r4                 ;497
000048  d1f0              BNE      |L16.44|
00004a  f8132d01          LDRB     r2,[r3,#-1]!          ;497
00004e  b12a              CBZ      r2,|L16.92|
                  |L16.80|
000050  f80c2b01          STRB     r2,[r12],#1           ;497
000054  f8132d01          LDRB     r2,[r3,#-1]!          ;497
000058  2a00              CMP      r2,#0                 ;497
00005a  d1f9              BNE      |L16.80|
                  |L16.92|
00005c  f88c5000          STRB     r5,[r12,#0]           ;497
;;;501    
;;;502    	tft_printc(x, y, buf);
000060  466a              MOV      r2,sp
000062  f7fffffe          BL       tft_printc
;;;503    }
000066  b007              ADD      sp,sp,#0x1c
000068  bdf0              POP      {r4-r7,pc}
;;;504    
                          ENDP

00006a  0000              DCW      0x0000
                  |L16.108|
                          DCD      0x66666667

                          AREA ||i.tft_printl||, CODE, READONLY, ALIGN=2

                  tft_printl PROC
;;;528    
;;;529    void tft_printl(uint8_t x, uint8_t y, int64_t num) {
000000  e92d43f0          PUSH     {r4-r9,lr}
000004  b089              SUB      sp,sp,#0x24
;;;530    	char buf[12]={0};
000006  2700              MOVS     r7,#0
000008  4688              MOV      r8,r1                 ;529
00000a  4681              MOV      r9,r0                 ;529
00000c  9706              STR      r7,[sp,#0x18]
00000e  9707              STR      r7,[sp,#0x1c]
;;;531    
;;;532    	ltos(buf, num);
000010  ae06              ADD      r6,sp,#0x18
000012  4614              MOV      r4,r2
000014  9708              STR      r7,[sp,#0x20]
000016  ea5f0c03          MOVS     r12,r3
00001a  d507              BPL      |L17.44|
00001c  2000              MOVS     r0,#0                 ;529
00001e  4264              RSBS     r4,r4,#0              ;529
000020  eb600c03          SBC      r12,r0,r3             ;529
000024  202d              MOVS     r0,#0x2d              ;529
000026  f88d0018          STRB     r0,[sp,#0x18]         ;529
00002a  1c76              ADDS     r6,r6,#1              ;529
                  |L17.44|
00002c  9700              STR      r7,[sp,#0]            ;529
00002e  9701              STR      r7,[sp,#4]            ;529
000030  9702              STR      r7,[sp,#8]            ;529
000032  9703              STR      r7,[sp,#0xc]          ;529
000034  9704              STR      r7,[sp,#0x10]         ;529
000036  f10d0501          ADD      r5,sp,#1              ;529
00003a  9705              STR      r7,[sp,#0x14]         ;529
                  |L17.60|
00003c  220a              MOVS     r2,#0xa               ;529
00003e  2300              MOVS     r3,#0                 ;529
000040  4620              MOV      r0,r4                 ;529
000042  4661              MOV      r1,r12                ;529
000044  f7fffffe          BL       __aeabi_ldivmod
000048  3230              ADDS     r2,r2,#0x30           ;529
00004a  4604              MOV      r4,r0                 ;529
00004c  468c              MOV      r12,r1                ;529
00004e  f8052b01          STRB     r2,[r5],#1            ;529
000052  ea50000c          ORRS     r0,r0,r12             ;529
000056  d1f1              BNE      |L17.60|
000058  f8150d01          LDRB     r0,[r5,#-1]!          ;529
00005c  b130              CBZ      r0,|L17.108|
00005e  bf00              NOP                            ;529
                  |L17.96|
000060  f8060b01          STRB     r0,[r6],#1            ;529
000064  f8150d01          LDRB     r0,[r5,#-1]!          ;529
000068  2800              CMP      r0,#0                 ;529
00006a  d1f9              BNE      |L17.96|
                  |L17.108|
00006c  7037              STRB     r7,[r6,#0]            ;529
;;;533    
;;;534    	tft_printc(x, y, buf);
00006e  aa06              ADD      r2,sp,#0x18
000070  4641              MOV      r1,r8
000072  4648              MOV      r0,r9
000074  f7fffffe          BL       tft_printc
;;;535    }
000078  b009              ADD      sp,sp,#0x24
00007a  e8bd83f0          POP      {r4-r9,pc}
;;;536    
                          ENDP


                          AREA ||i.tft_prints||, CODE, READONLY, ALIGN=2

                  tft_prints PROC
;;;486      */
;;;487    void tft_prints(uint8_t x, uint8_t y, const char * fmt, ...) {
000000  b40f              PUSH     {r0-r3}
000002  e92d4ff0          PUSH     {r4-r11,lr}
000006  b0c5              SUB      sp,sp,#0x114
000008  468a              MOV      r10,r1
00000a  4683              MOV      r11,r0
;;;488    	char buf[255]={0}, *fp=buf;
00000c  f44f7180          MOV      r1,#0x100
000010  a803              ADD      r0,sp,#0xc
000012  f7fffffe          BL       __aeabi_memclr4
000016  9c50              LDR      r4,[sp,#0x140]
000018  a803              ADD      r0,sp,#0xc
;;;489    	
;;;490    	va_list args;
;;;491    	va_start( args, fmt );
;;;492    	int c = print( &fp, fmt, args );
00001a  9043              STR      r0,[sp,#0x10c]
00001c  7820              LDRB     r0,[r4,#0]
00001e  2700              MOVS     r7,#0
000020  ad51              ADD      r5,sp,#0x144          ;491
000022  f50d7886          ADD      r8,sp,#0x10c
000026  2800              CMP      r0,#0
000028  bf1c              ITT      NE
00002a  f04f0941          MOVNE    r9,#0x41
00002e  2661              MOVNE    r6,#0x61
000030  d076              BEQ      |L18.288|
                  |L18.50|
000032  b2c0              UXTB     r0,r0
000034  2825              CMP      r0,#0x25
000036  d175              BNE      |L18.292|
000038  2200              MOVS     r2,#0
00003a  f8140f01          LDRB     r0,[r4,#1]!
00003e  4613              MOV      r3,r2
000040  2800              CMP      r0,#0
000042  d079              BEQ      |L18.312|
000044  2825              CMP      r0,#0x25
000046  d06d              BEQ      |L18.292|
000048  282d              CMP      r0,#0x2d
00004a  bf04              ITT      EQ
00004c  2301              MOVEQ    r3,#1
00004e  1c64              ADDEQ    r4,r4,#1
000050  7820              LDRB     r0,[r4,#0]
000052  2830              CMP      r0,#0x30
000054  d106              BNE      |L18.100|
000056  bf00              NOP      
                  |L18.88|
000058  f8140f01          LDRB     r0,[r4,#1]!
00005c  f0430302          ORR      r3,r3,#2
000060  2830              CMP      r0,#0x30
000062  d0f9              BEQ      |L18.88|
                  |L18.100|
000064  b2c0              UXTB     r0,r0
000066  3830              SUBS     r0,r0,#0x30
000068  2809              CMP      r0,#9
00006a  d80a              BHI      |L18.130|
                  |L18.108|
00006c  eb020082          ADD      r0,r2,r2,LSL #2
000070  0040              LSLS     r0,r0,#1
000072  f8141b01          LDRB     r1,[r4],#1
000076  3830              SUBS     r0,r0,#0x30
000078  180a              ADDS     r2,r1,r0
00007a  7820              LDRB     r0,[r4,#0]
00007c  3830              SUBS     r0,r0,#0x30
00007e  2809              CMP      r0,#9
000080  d9f4              BLS      |L18.108|
                  |L18.130|
000082  7820              LDRB     r0,[r4,#0]
000084  2873              CMP      r0,#0x73
000086  d00a              BEQ      |L18.158|
000088  2864              CMP      r0,#0x64
00008a  d011              BEQ      |L18.176|
00008c  2878              CMP      r0,#0x78
00008e  d01a              BEQ      |L18.198|
000090  2858              CMP      r0,#0x58
000092  d023              BEQ      |L18.220|
000094  2875              CMP      r0,#0x75
000096  d02d              BEQ      |L18.244|
000098  2863              CMP      r0,#0x63
00009a  d036              BEQ      |L18.266|
00009c  e047              B        |L18.302|
                  |L18.158|
00009e  f8551b04          LDR      r1,[r5],#4
0000a2  2900              CMP      r1,#0
0000a4  bf08              IT       EQ
0000a6  a129              ADREQ    r1,|L18.332|
0000a8  4640              MOV      r0,r8
0000aa  f7fffffe          BL       prints
0000ae  e03e              B        |L18.302|
                  |L18.176|
0000b0  e9cd2300          STRD     r2,r3,[sp,#0]
0000b4  9602              STR      r6,[sp,#8]
0000b6  f8551b04          LDR      r1,[r5],#4
0000ba  2301              MOVS     r3,#1
0000bc  220a              MOVS     r2,#0xa
0000be  4640              MOV      r0,r8
0000c0  f7fffffe          BL       printi
0000c4  e033              B        |L18.302|
                  |L18.198|
0000c6  e9cd2300          STRD     r2,r3,[sp,#0]
0000ca  9602              STR      r6,[sp,#8]
0000cc  f8551b04          LDR      r1,[r5],#4
0000d0  2300              MOVS     r3,#0
0000d2  2210              MOVS     r2,#0x10
0000d4  4640              MOV      r0,r8
0000d6  f7fffffe          BL       printi
0000da  e028              B        |L18.302|
                  |L18.220|
0000dc  e9cd2300          STRD     r2,r3,[sp,#0]
0000e0  f8cd9008          STR      r9,[sp,#8]
0000e4  f8551b04          LDR      r1,[r5],#4
0000e8  2300              MOVS     r3,#0
0000ea  2210              MOVS     r2,#0x10
0000ec  4640              MOV      r0,r8
0000ee  f7fffffe          BL       printi
0000f2  e01c              B        |L18.302|
                  |L18.244|
0000f4  e9cd2300          STRD     r2,r3,[sp,#0]
0000f8  9602              STR      r6,[sp,#8]
0000fa  f8551b04          LDR      r1,[r5],#4
0000fe  2300              MOVS     r3,#0
000100  220a              MOVS     r2,#0xa
000102  4640              MOV      r0,r8
000104  f7fffffe          BL       printi
000108  e011              B        |L18.302|
                  |L18.266|
00010a  f8150b04          LDRB     r0,[r5],#4
00010e  f88d0110          STRB     r0,[sp,#0x110]
000112  f88d7111          STRB     r7,[sp,#0x111]
000116  a944              ADD      r1,sp,#0x110
000118  4640              MOV      r0,r8
00011a  f7fffffe          BL       prints
00011e  e006              B        |L18.302|
                  |L18.288|
000120  e00a              B        |L18.312|
000122  e7ff              B        |L18.292|
                  |L18.292|
000124  9943              LDR      r1,[sp,#0x10c]
000126  7008              STRB     r0,[r1,#0]
000128  9843              LDR      r0,[sp,#0x10c]
00012a  1c40              ADDS     r0,r0,#1
00012c  9043              STR      r0,[sp,#0x10c]
                  |L18.302|
00012e  f8140f01          LDRB     r0,[r4,#1]!
000132  2800              CMP      r0,#0
000134  f47faf7d          BNE      |L18.50|
                  |L18.312|
;;;493    
;;;494    	tft_printc(x, y, buf);
000138  aa03              ADD      r2,sp,#0xc
00013a  4651              MOV      r1,r10
00013c  4658              MOV      r0,r11
00013e  f7fffffe          BL       tft_printc
;;;495    }
000142  b045              ADD      sp,sp,#0x114
000144  e8bd0ff0          POP      {r4-r11}
000148  f85dfb14          LDR      pc,[sp],#0x14
;;;496    
                          ENDP

                  |L18.332|
00014c  286e756c          DCB      "(null)",0
000150  6c2900  
000153  00                DCB      0

                          AREA ||i.tft_printu||, CODE, READONLY, ALIGN=2

                  tft_printu PROC
;;;536    
;;;537    void tft_printu(uint8_t x, uint8_t y, uint32_t num) {
000000  b5f0              PUSH     {r4-r7,lr}
000002  b08b              SUB      sp,sp,#0x2c
;;;538    	char buf[12]={0};
000004  2500              MOVS     r5,#0
000006  9506              STR      r5,[sp,#0x18]
000008  9507              STR      r5,[sp,#0x1c]
00000a  9508              STR      r5,[sp,#0x20]
00000c  4e13              LDR      r6,|L19.92|
;;;539    
;;;540    	utos(buf, num);
00000e  f10d0c18          ADD      r12,sp,#0x18
000012  9501              STR      r5,[sp,#4]
000014  9502              STR      r5,[sp,#8]
000016  9503              STR      r5,[sp,#0xc]
000018  f10d0305          ADD      r3,sp,#5
00001c  f8cd5010          STR.W    r5,[sp,#0x10]
                  |L19.32|
000020  fba67402          UMULL    r7,r4,r6,r2
000024  08e4              LSRS     r4,r4,#3
000026  4267              RSBS     r7,r4,#0
000028  eb070787          ADD      r7,r7,r7,LSL #2
00002c  eb020247          ADD      r2,r2,r7,LSL #1
000030  3230              ADDS     r2,r2,#0x30
000032  f8032b01          STRB     r2,[r3],#1
000036  0022              MOVS     r2,r4
000038  d1f2              BNE      |L19.32|
00003a  f8132d01          LDRB     r2,[r3,#-1]!
00003e  b12a              CBZ      r2,|L19.76|
                  |L19.64|
000040  f80c2b01          STRB     r2,[r12],#1
000044  f8132d01          LDRB     r2,[r3,#-1]!
000048  2a00              CMP      r2,#0
00004a  d1f9              BNE      |L19.64|
                  |L19.76|
00004c  f88c5000          STRB     r5,[r12,#0]
;;;541    
;;;542    	tft_printc(x, y, buf);
000050  aa06              ADD      r2,sp,#0x18
000052  f7fffffe          BL       tft_printc
;;;543    }
000056  b00b              ADD      sp,sp,#0x2c
000058  bdf0              POP      {r4-r7,pc}
;;;544    
                          ENDP

00005a  0000              DCW      0x0000
                  |L19.92|
                          DCD      0xcccccccd

                          AREA ||i.tft_push_pxbuf||, CODE, READONLY, ALIGN=2

                  tft_push_pxbuf PROC
;;;630    }
;;;631    void tft_push_pxbuf(void* buf, uint32_t x, uint32_t y, uint32_t w, uint32_t h) {
000000  e92d0ff0          PUSH     {r4-r11}
000004  f8dfc194          LDR      r12,|L20.412|
000008  f8dd5020          LDR.W    r5,[sp,#0x20]
                  |L20.12|
00000c  f8dc4000          LDR      r4,[r12,#0]
000010  f4146f00          TST      r4,#0x800
000014  d0fa              BEQ      |L20.12|
000016  4c62              LDR      r4,|L20.416|
000018  f44f6c00          MOV      r12,#0x800
00001c  f8c4c000          STR      r12,[r4,#0]
;;;632    	tft_dma_wait();
;;;633    	
;;;634    	tft_set_region(x, y, w-1, h-1);
000020  fa1ffc82          UXTH     r12,r2
000024  fa1ff881          UXTH     r8,r1
000028  1e5a              SUBS     r2,r3,#1
00002a  1e69              SUBS     r1,r5,#1
00002c  4442              ADD      r2,r2,r8
00002e  4461              ADD      r1,r1,r12
000030  fa1ff982          UXTH     r9,r2
000034  b28f              UXTH     r7,r1
000036  262a              MOVS     r6,#0x2a
000038  b672              CPSID    i
00003a  495a              LDR      r1,|L20.420|
                  |L20.60|
00003c  688a              LDR      r2,[r1,#8]
00003e  f0120f80          TST      r2,#0x80
000042  d1fb              BNE      |L20.60|
000044  4a58              LDR      r2,|L20.424|
000046  f44f1400          MOV      r4,#0x200000
00004a  6014              STR      r4,[r2,#0]
                  |L20.76|
00004c  f8d1a008          LDR      r10,[r1,#8]
000050  f01a0f02          TST      r10,#2
000054  d0fa              BEQ      |L20.76|
000056  60ce              STR      r6,[r1,#0xc]
                  |L20.88|
000058  688e              LDR      r6,[r1,#8]
00005a  f0160f80          TST      r6,#0x80
00005e  d0fb              BEQ      |L20.88|
                  |L20.96|
000060  688e              LDR      r6,[r1,#8]
000062  f0160f80          TST      r6,#0x80
000066  d1fb              BNE      |L20.96|
000068  2620              MOVS     r6,#0x20
00006a  6016              STR      r6,[r2,#0]
00006c  b662              CPSIE    i
00006e  ea4f2b18          LSR      r11,r8,#8
000072  bf00              NOP      
                  |L20.116|
000074  f8d1a008          LDR      r10,[r1,#8]
000078  f01a0f02          TST      r10,#2
00007c  d0fa              BEQ      |L20.116|
00007e  f8c1b00c          STR      r11,[r1,#0xc]
000082  f00808ff          AND      r8,r8,#0xff
000086  bf00              NOP      
                  |L20.136|
000088  f8d1a008          LDR      r10,[r1,#8]
00008c  f01a0f02          TST      r10,#2
000090  d0fa              BEQ      |L20.136|
000092  f8c1800c          STR      r8,[r1,#0xc]
000096  ea4f2a19          LSR      r10,r9,#8
00009a  bf00              NOP      
                  |L20.156|
00009c  f8d18008          LDR      r8,[r1,#8]
0000a0  f0180f02          TST      r8,#2
0000a4  d0fa              BEQ      |L20.156|
0000a6  f8c1a00c          STR      r10,[r1,#0xc]
0000aa  f00909ff          AND      r9,r9,#0xff
0000ae  bf00              NOP      
                  |L20.176|
0000b0  f8d18008          LDR      r8,[r1,#8]
0000b4  f0180f02          TST      r8,#2
0000b8  d0fa              BEQ      |L20.176|
0000ba  f8c1900c          STR      r9,[r1,#0xc]
0000be  f04f082b          MOV      r8,#0x2b
0000c2  b672              CPSID    i
                  |L20.196|
0000c4  f8d19008          LDR      r9,[r1,#8]
0000c8  f0190f80          TST      r9,#0x80
0000cc  d1fa              BNE      |L20.196|
0000ce  6014              STR      r4,[r2,#0]
                  |L20.208|
0000d0  f8d19008          LDR      r9,[r1,#8]
0000d4  f0190f02          TST      r9,#2
0000d8  d0fa              BEQ      |L20.208|
0000da  f8c1800c          STR      r8,[r1,#0xc]
0000de  bf00              NOP      
                  |L20.224|
0000e0  f8d18008          LDR      r8,[r1,#8]
0000e4  f0180f80          TST      r8,#0x80
0000e8  d0fa              BEQ      |L20.224|
0000ea  bf00              NOP      
                  |L20.236|
0000ec  f8d18008          LDR      r8,[r1,#8]
0000f0  f0180f80          TST      r8,#0x80
0000f4  d1fa              BNE      |L20.236|
0000f6  6016              STR      r6,[r2,#0]
0000f8  b662              CPSIE    i
0000fa  ea4f291c          LSR      r9,r12,#8
0000fe  bf00              NOP      
                  |L20.256|
000100  f8d18008          LDR      r8,[r1,#8]
000104  f0180f02          TST      r8,#2
000108  d0fa              BEQ      |L20.256|
00010a  f8c1900c          STR      r9,[r1,#0xc]
00010e  f00c08ff          AND      r8,r12,#0xff
000112  bf00              NOP      
                  |L20.276|
000114  f8d1c008          LDR      r12,[r1,#8]
000118  f01c0f02          TST      r12,#2
00011c  d0fa              BEQ      |L20.276|
00011e  f8c1800c          STR      r8,[r1,#0xc]
000122  ea4f2817          LSR      r8,r7,#8
000126  bf00              NOP      
                  |L20.296|
000128  f8d1c008          LDR      r12,[r1,#8]
00012c  f01c0f02          TST      r12,#2
000130  d0fa              BEQ      |L20.296|
000132  f8c1800c          STR      r8,[r1,#0xc]
000136  b2ff              UXTB     r7,r7
                  |L20.312|
000138  f8d1c008          LDR      r12,[r1,#8]
00013c  f01c0f02          TST      r12,#2
000140  d0fa              BEQ      |L20.312|
000142  60cf              STR      r7,[r1,#0xc]
000144  272c              MOVS     r7,#0x2c
000146  b672              CPSID    i
                  |L20.328|
000148  f8d1c008          LDR      r12,[r1,#8]
00014c  f01c0f80          TST      r12,#0x80
000150  d1fa              BNE      |L20.328|
000152  6014              STR      r4,[r2,#0]
                  |L20.340|
000154  f8d1c008          LDR      r12,[r1,#8]
000158  f01c0f02          TST      r12,#2
00015c  d0fa              BEQ      |L20.340|
00015e  60cf              STR      r7,[r1,#0xc]
                  |L20.352|
000160  f8d1c008          LDR      r12,[r1,#8]
000164  f01c0f80          TST      r12,#0x80
000168  d0fa              BEQ      |L20.352|
00016a  bf00              NOP      
                  |L20.364|
00016c  f8d1c008          LDR      r12,[r1,#8]
000170  f01c0f80          TST      r12,#0x80
000174  d1fa              BNE      |L20.364|
000176  6016              STR      r6,[r2,#0]
000178  b662              CPSIE    i
;;;635    	
;;;636    	dma_transfer(TFT_DMA, buf, w*h*2);
00017a  fb03f105          MUL      r1,r3,r5
00017e  f64f72ff          MOV      r2,#0xffff
000182  ea020241          AND      r2,r2,r1,LSL #1
000186  4909              LDR      r1,|L20.428|
000188  60c8              STR      r0,[r1,#0xc]
00018a  604a              STR      r2,[r1,#4]
00018c  6808              LDR      r0,[r1,#0]
00018e  f0400001          ORR      r0,r0,#1
000192  6008              STR      r0,[r1,#0]
;;;637    }
000194  e8bd0ff0          POP      {r4-r11}
000198  4770              BX       lr
;;;638    #define CHAR_BYTES            CHAR_WIDTH*CHAR_HEIGHT*2
                          ENDP

00019a  0000              DCW      0x0000
                  |L20.412|
                          DCD      0x40026404
                  |L20.416|
                          DCD      0x4002640c
                  |L20.420|
                          DCD      0x40013000
                  |L20.424|
                          DCD      0x40020818
                  |L20.428|
                          DCD      0x40026488

                          AREA ||i.tft_put_pixel||, CODE, READONLY, ALIGN=2

                  tft_put_pixel PROC
;;;408      */
;;;409    void tft_put_pixel(uint16_t x, uint16_t y, uint16_t color) {
000000  e92d03f0          PUSH     {r4-r9}
000004  1c43              ADDS     r3,r0,#1
000006  b29e              UXTH     r6,r3
000008  1c4b              ADDS     r3,r1,#1
00000a  b29f              UXTH     r7,r3
00000c  f04f082a          MOV      r8,#0x2a
000010  b672              CPSID    i
000012  4b4a              LDR      r3,|L21.316|
                  |L21.20|
000014  f8d3c008          LDR      r12,[r3,#8]
000018  f01c0f80          TST      r12,#0x80
00001c  d1fa              BNE      |L21.20|
00001e  f8dfc120          LDR      r12,|L21.320|
000022  f44f1400          MOV      r4,#0x200000
000026  f8cc4000          STR      r4,[r12,#0]
                  |L21.42|
00002a  689d              LDR      r5,[r3,#8]
00002c  f0150f02          TST      r5,#2
000030  d0fb              BEQ      |L21.42|
000032  f8c3800c          STR      r8,[r3,#0xc]
                  |L21.54|
000036  689d              LDR      r5,[r3,#8]
000038  f0150f80          TST      r5,#0x80
00003c  d0fb              BEQ      |L21.54|
                  |L21.62|
00003e  689d              LDR      r5,[r3,#8]
000040  f0150f80          TST      r5,#0x80
000044  d1fb              BNE      |L21.62|
000046  2520              MOVS     r5,#0x20
000048  f8cc5000          STR      r5,[r12,#0]
00004c  b662              CPSIE    i
00004e  ea4f2810          LSR      r8,r0,#8
000052  bf00              NOP      
                  |L21.84|
000054  f8d39008          LDR      r9,[r3,#8]
000058  f0190f02          TST      r9,#2
00005c  d0fa              BEQ      |L21.84|
00005e  f8c3800c          STR      r8,[r3,#0xc]
000062  f00008ff          AND      r8,r0,#0xff
                  |L21.102|
000066  6898              LDR      r0,[r3,#8]
000068  f0100f02          TST      r0,#2
00006c  d0fb              BEQ      |L21.102|
00006e  f8c3800c          STR      r8,[r3,#0xc]
000072  ea4f2816          LSR      r8,r6,#8
                  |L21.118|
000076  6898              LDR      r0,[r3,#8]
000078  f0100f02          TST      r0,#2
00007c  d0fb              BEQ      |L21.118|
00007e  f8c3800c          STR      r8,[r3,#0xc]
000082  b2f6              UXTB     r6,r6
                  |L21.132|
000084  6898              LDR      r0,[r3,#8]
000086  f0100f02          TST      r0,#2
00008a  d0fb              BEQ      |L21.132|
00008c  60de              STR      r6,[r3,#0xc]
00008e  262b              MOVS     r6,#0x2b
000090  b672              CPSID    i
                  |L21.146|
000092  6898              LDR      r0,[r3,#8]
000094  f0100f80          TST      r0,#0x80
000098  d1fb              BNE      |L21.146|
00009a  f8cc4000          STR      r4,[r12,#0]
                  |L21.158|
00009e  6898              LDR      r0,[r3,#8]
0000a0  f0100f02          TST      r0,#2
0000a4  d0fb              BEQ      |L21.158|
0000a6  60de              STR      r6,[r3,#0xc]
                  |L21.168|
0000a8  6898              LDR      r0,[r3,#8]
0000aa  f0100f80          TST      r0,#0x80
0000ae  d0fb              BEQ      |L21.168|
                  |L21.176|
0000b0  6898              LDR      r0,[r3,#8]
0000b2  f0100f80          TST      r0,#0x80
0000b6  d1fb              BNE      |L21.176|
0000b8  f8cc5000          STR      r5,[r12,#0]
0000bc  b662              CPSIE    i
0000be  0a0e              LSRS     r6,r1,#8
                  |L21.192|
0000c0  6898              LDR      r0,[r3,#8]
0000c2  f0100f02          TST      r0,#2
0000c6  d0fb              BEQ      |L21.192|
0000c8  60de              STR      r6,[r3,#0xc]
0000ca  b2c9              UXTB     r1,r1
                  |L21.204|
0000cc  6898              LDR      r0,[r3,#8]
0000ce  f0100f02          TST      r0,#2
0000d2  d0fb              BEQ      |L21.204|
0000d4  60d9              STR      r1,[r3,#0xc]
0000d6  0a39              LSRS     r1,r7,#8
                  |L21.216|
0000d8  6898              LDR      r0,[r3,#8]
0000da  f0100f02          TST      r0,#2
0000de  d0fb              BEQ      |L21.216|
0000e0  60d9              STR      r1,[r3,#0xc]
0000e2  b2f9              UXTB     r1,r7
                  |L21.228|
0000e4  6898              LDR      r0,[r3,#8]
0000e6  f0100f02          TST      r0,#2
0000ea  d0fb              BEQ      |L21.228|
0000ec  60d9              STR      r1,[r3,#0xc]
0000ee  212c              MOVS     r1,#0x2c
0000f0  b672              CPSID    i
                  |L21.242|
0000f2  6898              LDR      r0,[r3,#8]
0000f4  f0100f80          TST      r0,#0x80
0000f8  d1fb              BNE      |L21.242|
0000fa  f8cc4000          STR      r4,[r12,#0]
                  |L21.254|
0000fe  6898              LDR      r0,[r3,#8]
000100  f0100f02          TST      r0,#2
000104  d0fb              BEQ      |L21.254|
000106  60d9              STR      r1,[r3,#0xc]
                  |L21.264|
000108  6898              LDR      r0,[r3,#8]
00010a  f0100f80          TST      r0,#0x80
00010e  d0fb              BEQ      |L21.264|
                  |L21.272|
000110  6898              LDR      r0,[r3,#8]
000112  f0100f80          TST      r0,#0x80
000116  d1fb              BNE      |L21.272|
000118  f8cc5000          STR      r5,[r12,#0]
00011c  b662              CPSIE    i
00011e  0a11              LSRS     r1,r2,#8
                  |L21.288|
000120  6898              LDR      r0,[r3,#8]
000122  f0100f02          TST      r0,#2
000126  d0fb              BEQ      |L21.288|
000128  60d9              STR      r1,[r3,#0xc]
00012a  b2d1              UXTB     r1,r2
                  |L21.300|
00012c  6898              LDR      r0,[r3,#8]
00012e  f0100f02          TST      r0,#2
000132  d0fb              BEQ      |L21.300|
000134  60d9              STR      r1,[r3,#0xc]
;;;410    	tft_set_region(x, y, 1, 1);
;;;411    	tft_write_color(color);
;;;412    }
000136  e8bd03f0          POP      {r4-r9}
00013a  4770              BX       lr
;;;413    
                          ENDP

                  |L21.316|
                          DCD      0x40013000
                  |L21.320|
                          DCD      0x40020818

                          AREA ||i.tft_pxbuf_update||, CODE, READONLY, ALIGN=2

                  tft_pxbuf_update PROC
;;;683    #define tft_px_index(py, px) (tft_px_buffer[px + py*row_width])
;;;684    void tft_pxbuf_update(uint16_t* tft_px_buffer) {
000000  e92d4ff1          PUSH     {r0,r4-r11,lr}
;;;685    	const uint8_t *char_ptr;
;;;686    	uint16_t color;
;;;687    	uint32_t px = 0, py = 0;
;;;688    	uint16_t* pix;
;;;689    	
;;;690    	for (uint32_t j = 0; j < char_max_y; j++) {
000004  4864              LDR      r0,|L22.408|
000006  4964              LDR      r1,|L22.408|
000008  b097              SUB      sp,sp,#0x5c           ;684
00000a  7880              LDRB     r0,[r0,#2]  ; char_max_y
;;;691    		for (uint32_t i = 0; i < char_max_x; i++) {
;;;692    			if (tft_char_is_changed(i, j)) {
;;;693    				px = i * CHAR_WIDTH;
;;;694    				py = j * CHAR_HEIGHT;
;;;695    				pix = &tft_px_index(py, px);
;;;696    				char_ptr = CHAR_PTR(text_buf[cur_screen][i][j]);
00000c  78ca              LDRB     r2,[r1,#3]
00000e  9211              STR      r2,[sp,#0x44]
000010  7909              LDRB     r1,[r1,#4]
000012  9110              STR      r1,[sp,#0x40]         ;690
000014  2800              CMP      r0,#0                 ;690
000016  bf1c              ITT      NE                    ;690
000018  f04f0800          MOVNE    r8,#0                 ;690
00001c  495e              LDRNE    r1,|L22.408|
00001e  d97b              BLS      |L22.280|
;;;697    				uint16_t fg = text_color_buf[cur_screen][i][j];
;;;698    				uint16_t bg = bg_color_buf[cur_screen][i][j];
;;;699    				for (uint32_t y = 0; y < CHAR_HEIGHT; y++) {
;;;700    					char_ptr++;
;;;701    					for (uint32_t x = CHAR_WIDTH; x > 0; x--) {
;;;702    						color = (*char_ptr >> (x - 1) & 0x01) ? fg : bg;
;;;703    						*pix++ = color;
;;;704    					}
;;;705    					pix += row_width-CHAR_WIDTH;
000020  f8b1a00e          LDRH     r10,[r1,#0xe]  ; row_width
000024  7849              LDRB     r1,[r1,#1]  ; char_max_x
000026  9b10              LDR      r3,[sp,#0x40]
000028  9107              STR      r1,[sp,#0x1c]
00002a  900c              STR      r0,[sp,#0x30]
00002c  eb0300c3          ADD      r0,r3,r3,LSL #3
000030  f8dfc168          LDR      r12,|L22.412|
000034  eb001003          ADD      r0,r0,r3,LSL #4
000038  eb0c1140          ADD      r1,r12,r0,LSL #5
00003c  910f              STR      r1,[sp,#0x3c]
00003e  f50c61c8          ADD      r1,r12,#0x640
000042  eb011380          ADD      r3,r1,r0,LSL #6
000046  930e              STR      r3,[sp,#0x38]
000048  f5016348          ADD      r3,r1,#0xc80
00004c  eb031080          ADD      r0,r3,r0,LSL #6
000050  900d              STR      r0,[sp,#0x34]
000052  eb0200c2          ADD      r0,r2,r2,LSL #3
000056  eb001002          ADD      r0,r0,r2,LSL #4
00005a  eb0c1b40          ADD      r11,r12,r0,LSL #5
00005e  eb011180          ADD      r1,r1,r0,LSL #6
000062  eb031080          ADD      r0,r3,r0,LSL #6
000066  e9cd0102          STRD     r0,r1,[sp,#8]
                  |L22.106|
00006a  9807              LDR      r0,[sp,#0x1c]         ;691
00006c  2800              CMP      r0,#0                 ;691
00006e  bf18              IT       NE                    ;691
000070  f04f0900          MOVNE    r9,#0                 ;691
000074  bf84              ITT      HI                    ;691
000076  ea4f1008          LSLHI    r0,r8,#4              ;691
00007a  9012              STRHI    r0,[sp,#0x48]         ;694
00007c  d976              BLS      |L22.364|
00007e  bf00              NOP                            ;692
                  |L22.128|
000080  f00901ff          AND      r1,r9,#0xff           ;692
000084  eb010181          ADD      r1,r1,r1,LSL #2       ;692
000088  f00800ff          AND      r0,r8,#0xff           ;692
00008c  eb0b0281          ADD      r2,r11,r1,LSL #2      ;692
000090  5c13              LDRB     r3,[r2,r0]            ;692
000092  9a0f              LDR      r2,[sp,#0x3c]         ;692
000094  eb020281          ADD      r2,r2,r1,LSL #2       ;692
000098  5c12              LDRB     r2,[r2,r0]            ;692
00009a  4293              CMP      r3,r2                 ;692
00009c  d117              BNE      |L22.206|
00009e  9a03              LDR      r2,[sp,#0xc]          ;692
0000a0  eb0202c1          ADD      r2,r2,r1,LSL #3       ;692
0000a4  f8323010          LDRH     r3,[r2,r0,LSL #1]     ;692
0000a8  9a0e              LDR      r2,[sp,#0x38]         ;692
0000aa  eb0202c1          ADD      r2,r2,r1,LSL #3       ;692
0000ae  f8322010          LDRH     r2,[r2,r0,LSL #1]     ;692
0000b2  4293              CMP      r3,r2                 ;692
0000b4  d10b              BNE      |L22.206|
0000b6  9a02              LDR      r2,[sp,#8]            ;692
0000b8  eb0202c1          ADD      r2,r2,r1,LSL #3       ;692
0000bc  f8323010          LDRH     r3,[r2,r0,LSL #1]     ;692
0000c0  9a0d              LDR      r2,[sp,#0x34]         ;692
0000c2  eb0201c1          ADD      r1,r2,r1,LSL #3       ;692
0000c6  f8310010          LDRH     r0,[r1,r0,LSL #1]     ;692
0000ca  4283              CMP      r3,r0                 ;692
0000cc  d049              BEQ      |L22.354|
                  |L22.206|
0000ce  9812              LDR      r0,[sp,#0x48]         ;695
0000d0  ea4f01c9          LSL      r1,r9,#3              ;695
0000d4  fb00110a          MLA      r1,r0,r10,r1          ;695
0000d8  9817              LDR      r0,[sp,#0x5c]         ;695
0000da  f04f0c00          MOV      r12,#0                ;699
0000de  eb000541          ADD      r5,r0,r1,LSL #1       ;695
0000e2  eb090089          ADD      r0,r9,r9,LSL #2       ;696
0000e6  eb0b0180          ADD      r1,r11,r0,LSL #2      ;696
0000ea  f8112008          LDRB     r2,[r1,r8]            ;696
0000ee  492c              LDR      r1,|L22.416|
0000f0  eb011102          ADD      r1,r1,r2,LSL #4       ;696
0000f4  f5a17400          SUB      r4,r1,#0x200          ;696
0000f8  9903              LDR      r1,[sp,#0xc]          ;697
0000fa  eb0101c0          ADD      r1,r1,r0,LSL #3       ;697
0000fe  f8317018          LDRH     r7,[r1,r8,LSL #1]     ;697
000102  9902              LDR      r1,[sp,#8]            ;698
000104  eb0100c0          ADD      r0,r1,r0,LSL #3       ;698
000108  f8306018          LDRH     r6,[r0,r8,LSL #1]     ;698
                  |L22.268|
00010c  1ea9              SUBS     r1,r5,#2              ;701
00010e  2000              MOVS     r0,#0                 ;701
000110  f8143f01          LDRB     r3,[r4,#1]!           ;701
000114  2204              MOVS     r2,#4                 ;701
                  |L22.278|
000116  e000              B        |L22.282|
                  |L22.280|
000118  e02e              B        |L22.376|
                  |L22.282|
00011a  f1c00e07          RSB      lr,r0,#7              ;703
00011e  fa23fe0e          LSR      lr,r3,lr              ;703
000122  f01e0f01          TST      lr,#1                 ;703
000126  bf14              ITE      NE                    ;703
000128  46be              MOVNE    lr,r7                 ;703
00012a  46b6              MOVEQ    lr,r6                 ;703
00012c  f8a1e002          STRH     lr,[r1,#2]            ;703
000130  f1c00e06          RSB      lr,r0,#6              ;703
000134  fa23fe0e          LSR      lr,r3,lr              ;703
000138  f01e0f01          TST      lr,#1                 ;703
00013c  bf14              ITE      NE                    ;703
00013e  46be              MOVNE    lr,r7                 ;703
000140  46b6              MOVEQ    lr,r6                 ;703
000142  f821ef04          STRH     lr,[r1,#4]!           ;703
000146  1c80              ADDS     r0,r0,#2              ;703
000148  1e52              SUBS     r2,r2,#1              ;703
00014a  d1e4              BNE      |L22.278|
00014c  f1050010          ADD      r0,r5,#0x10           ;704
000150  eb00004a          ADD      r0,r0,r10,LSL #1
000154  f10c0c01          ADD      r12,r12,#1
000158  f1a00510          SUB      r5,r0,#0x10
00015c  f1bc0f10          CMP      r12,#0x10
000160  d3d4              BCC      |L22.268|
                  |L22.354|
000162  9807              LDR      r0,[sp,#0x1c]
000164  f1090901          ADD      r9,r9,#1
000168  4581              CMP      r9,r0
00016a  d389              BCC      |L22.128|
                  |L22.364|
00016c  980c              LDR      r0,[sp,#0x30]
00016e  f1080801          ADD      r8,r8,#1
000172  4580              CMP      r8,r0
000174  f4ffaf79          BCC      |L22.106|
                  |L22.376|
;;;706    				}
;;;707    			}
;;;708    		}
;;;709    	}
;;;710    	
;;;711    	cur_screen = (cur_screen == 0);
000178  9911              LDR      r1,[sp,#0x44]
00017a  4807              LDR      r0,|L22.408|
00017c  2900              CMP      r1,#0
00017e  bf0c              ITE      EQ
000180  2101              MOVEQ    r1,#1
000182  2100              MOVNE    r1,#0
000184  70c1              STRB     r1,[r0,#3]
;;;712    	next_screen = (next_screen == 0);
000186  9910              LDR      r1,[sp,#0x40]
000188  2900              CMP      r1,#0
00018a  bf0c              ITE      EQ
00018c  2101              MOVEQ    r1,#1
00018e  2100              MOVNE    r1,#0
000190  7101              STRB     r1,[r0,#4]
;;;713    }
000192  b018              ADD      sp,sp,#0x60
000194  e8bd8ff0          POP      {r4-r11,pc}
;;;714    void tft_pxbuf_write(uint16_t* tft_px_buffer) {
                          ENDP

                  |L22.408|
                          DCD      ||.data||
                  |L22.412|
                          DCD      ||.bss||
                  |L22.416|
                          DCD      ||.constdata||+0x4

                          AREA ||i.tft_pxbuf_write||, CODE, READONLY, ALIGN=2

                  tft_pxbuf_write PROC
;;;713    }
;;;714    void tft_pxbuf_write(uint16_t* tft_px_buffer) {
000000  e92d4ff1          PUSH     {r0,r4-r11,lr}
;;;715    	const uint8_t *char_ptr;
;;;716    	uint16_t color;
;;;717    	uint32_t px = 0, py = 0;
;;;718    	uint16_t* pix;
;;;719    	
;;;720    	for (uint32_t j = 0; j < char_max_y; j++) {
000004  4848              LDR      r0,|L23.296|
000006  b086              SUB      sp,sp,#0x18           ;714
000008  7881              LDRB     r1,[r0,#2]  ; char_max_y
;;;721    		for (uint32_t i = 0; i < char_max_x; i++) {
;;;722    			char txt = text_buf[cur_screen][i][j];
;;;723    			if (txt != ' ') {
;;;724    				px = i * CHAR_WIDTH;
;;;725    				py = j * CHAR_HEIGHT;
;;;726    				pix = &tft_px_index(py, px);
;;;727    				char_ptr = CHAR_PTR(txt);
;;;728    				uint16_t fg = text_color_buf[cur_screen][i][j];
00000a  78c0              LDRB     r0,[r0,#3]
00000c  9000              STR      r0,[sp,#0]            ;720
00000e  2900              CMP      r1,#0                 ;720
000010  bf1c              ITT      NE                    ;720
000012  f04f0800          MOVNE    r8,#0                 ;720
000016  4a44              LDRNE    r2,|L23.296|
000018  d975              BLS      |L23.262|
;;;729    				uint16_t bg = bg_color_buf[cur_screen][i][j];
;;;730    				for (uint32_t y = 0; y < CHAR_HEIGHT; y++) {
;;;731    					char_ptr++;
;;;732    					for (uint32_t x = CHAR_WIDTH; x > 0; x--) {
;;;733    						color = (*char_ptr >> (x - 1) & 0x01) ? fg : bg;
;;;734    						*pix++ = color;
;;;735    					}
;;;736    					pix += row_width-CHAR_WIDTH;
00001a  f8b2a00e          LDRH     r10,[r2,#0xe]  ; row_width
00001e  f892b001          LDRB     r11,[r2,#1]  ; char_max_x
000022  9105              STR      r1,[sp,#0x14]         ;722
000024  4941              LDR      r1,|L23.300|
000026  eb0002c0          ADD      r2,r0,r0,LSL #3       ;722
00002a  eb021000          ADD      r0,r2,r0,LSL #4       ;722
00002e  eb011140          ADD      r1,r1,r0,LSL #5       ;722
000032  9104              STR      r1,[sp,#0x10]         ;728
000034  493e              LDR      r1,|L23.304|
000036  eb011180          ADD      r1,r1,r0,LSL #6       ;728
00003a  9103              STR      r1,[sp,#0xc]          ;729
00003c  493d              LDR      r1,|L23.308|
00003e  eb011080          ADD      r0,r1,r0,LSL #6       ;729
000042  9002              STR      r0,[sp,#8]            ;729
                  |L23.68|
000044  f1bb0f00          CMP      r11,#0                ;721
000048  bf1c              ITT      NE                    ;721
00004a  f04f0900          MOVNE    r9,#0                 ;721
00004e  f1bb0f00          CMPNE    r11,#0                ;721
000052  bf84              ITT      HI                    ;721
000054  ea4f1008          LSLHI    r0,r8,#4              ;721
000058  9001              STRHI    r0,[sp,#4]            ;725
00005a  d94f              BLS      |L23.252|
                  |L23.92|
00005c  9904              LDR      r1,[sp,#0x10]         ;722
00005e  eb090089          ADD      r0,r9,r9,LSL #2       ;722
000062  eb010180          ADD      r1,r1,r0,LSL #2       ;722
000066  f8111008          LDRB     r1,[r1,r8]            ;722
00006a  2920              CMP      r1,#0x20              ;723
00006c  d042              BEQ      |L23.244|
00006e  9a01              LDR      r2,[sp,#4]            ;726
000070  ea4f03c9          LSL      r3,r9,#3              ;723
000074  fb02330a          MLA      r3,r2,r10,r3          ;726
000078  9a06              LDR      r2,[sp,#0x18]         ;726
00007a  f04f0c00          MOV      r12,#0                ;730
00007e  eb020543          ADD      r5,r2,r3,LSL #1       ;726
000082  4a2d              LDR      r2,|L23.312|
000084  eb021101          ADD      r1,r2,r1,LSL #4       ;727
000088  f5a17400          SUB      r4,r1,#0x200          ;727
00008c  9903              LDR      r1,[sp,#0xc]          ;728
00008e  eb0101c0          ADD      r1,r1,r0,LSL #3       ;728
000092  f8317018          LDRH     r7,[r1,r8,LSL #1]     ;728
000096  9902              LDR      r1,[sp,#8]            ;729
000098  eb0100c0          ADD      r0,r1,r0,LSL #3       ;729
00009c  f8306018          LDRH     r6,[r0,r8,LSL #1]     ;729
                  |L23.160|
0000a0  f8143f01          LDRB     r3,[r4,#1]!           ;732
0000a4  1ea9              SUBS     r1,r5,#2              ;732
;;;737    				}
;;;738    			}
;;;739    		}
;;;740    	}
;;;741    	
;;;742    	cur_screen = (cur_screen == 0);
;;;743    	next_screen = (next_screen == 0);
;;;744    }
0000a6  2000              MOVS     r0,#0
0000a8  f05f0204          MOVS.W   r2,#4                 ;732
                  |L23.172|
0000ac  f1c00e07          RSB      lr,r0,#7              ;734
0000b0  fa23fe0e          LSR      lr,r3,lr              ;734
0000b4  f01e0f01          TST      lr,#1                 ;734
0000b8  bf14              ITE      NE                    ;734
0000ba  46be              MOVNE    lr,r7                 ;734
0000bc  46b6              MOVEQ    lr,r6                 ;734
0000be  f8a1e002          STRH     lr,[r1,#2]            ;734
0000c2  f1c00e06          RSB      lr,r0,#6              ;734
0000c6  fa23fe0e          LSR      lr,r3,lr              ;734
0000ca  f01e0f01          TST      lr,#1                 ;734
0000ce  bf14              ITE      NE                    ;734
0000d0  46be              MOVNE    lr,r7                 ;734
0000d2  46b6              MOVEQ    lr,r6                 ;734
0000d4  f821ef04          STRH     lr,[r1,#4]!           ;734
0000d8  1c80              ADDS     r0,r0,#2              ;734
0000da  1e52              SUBS     r2,r2,#1              ;734
0000dc  d1e6              BNE      |L23.172|
0000de  f1050010          ADD      r0,r5,#0x10           ;735
0000e2  eb00004a          ADD      r0,r0,r10,LSL #1      ;736
0000e6  f10c0c01          ADD      r12,r12,#1            ;736
0000ea  f1a00510          SUB      r5,r0,#0x10           ;736
0000ee  f1bc0f10          CMP      r12,#0x10             ;736
0000f2  d3d5              BCC      |L23.160|
                  |L23.244|
0000f4  f1090901          ADD      r9,r9,#1              ;736
0000f8  45d9              CMP      r9,r11                ;736
0000fa  d3af              BCC      |L23.92|
                  |L23.252|
0000fc  9805              LDR      r0,[sp,#0x14]         ;736
0000fe  f1080801          ADD      r8,r8,#1              ;736
000102  4580              CMP      r8,r0                 ;736
000104  d39e              BCC      |L23.68|
                  |L23.262|
000106  9900              LDR      r1,[sp,#0]            ;742
000108  4807              LDR      r0,|L23.296|
00010a  2900              CMP      r1,#0                 ;742
00010c  bf0c              ITE      EQ                    ;742
00010e  2101              MOVEQ    r1,#1                 ;742
000110  2100              MOVNE    r1,#0                 ;742
000112  70c1              STRB     r1,[r0,#3]            ;742
000114  7901              LDRB     r1,[r0,#4]            ;743  ; next_screen
000116  2900              CMP      r1,#0                 ;743
000118  bf0c              ITE      EQ                    ;743
00011a  2101              MOVEQ    r1,#1                 ;743
00011c  2100              MOVNE    r1,#0                 ;743
00011e  7101              STRB     r1,[r0,#4]            ;743
000120  b007              ADD      sp,sp,#0x1c
000122  e8bd8ff0          POP      {r4-r11,pc}
                          ENDP

000126  0000              DCW      0x0000
                  |L23.296|
                          DCD      ||.data||
                  |L23.300|
                          DCD      ||.bss||
                  |L23.304|
                          DCD      ||.bss||+0x640
                  |L23.308|
                          DCD      ||.bss||+0x12c0
                  |L23.312|
                          DCD      ||.constdata||+0x4

                          AREA ||i.tft_reset||, CODE, READONLY, ALIGN=2

                  tft_reset PROC
;;;205      */
;;;206    void tft_reset(void)
000000  4a0c              LDR      r2,|L24.52|
;;;207    {
;;;208    	gpio_set(TFT_RST);
000002  2010              MOVS     r0,#0x10
000004  6190              STR      r0,[r2,#0x18]
000006  480c              LDR      r0,|L24.56|
;;;209    	delay(100);
000008  2164              MOVS     r1,#0x64
00000a  6001              STR      r1,[r0,#0]  ; __delay
                  |L24.12|
00000c  6801              LDR      r1,[r0,#0]  ; __delay
00000e  2900              CMP      r1,#0
000010  d1fc              BNE      |L24.12|
;;;210    	gpio_reset(TFT_RST);
000012  4b0a              LDR      r3,|L24.60|
000014  f44f1180          MOV      r1,#0x100000
000018  6019              STR      r1,[r3,#0]
;;;211    	delay(100);
00001a  2164              MOVS     r1,#0x64
00001c  6001              STR      r1,[r0,#0]  ; __delay
                  |L24.30|
00001e  6801              LDR      r1,[r0,#0]  ; __delay
000020  2900              CMP      r1,#0
000022  d1fc              BNE      |L24.30|
;;;212    	gpio_set(TFT_RST);
000024  2110              MOVS     r1,#0x10
000026  6191              STR      r1,[r2,#0x18]
;;;213    	delay(100);
000028  2164              MOVS     r1,#0x64
00002a  6001              STR      r1,[r0,#0]  ; __delay
                  |L24.44|
00002c  6801              LDR      r1,[r0,#0]  ; __delay
00002e  2900              CMP      r1,#0
000030  d1fc              BNE      |L24.44|
;;;214    }
000032  4770              BX       lr
;;;215    
                          ENDP

                  |L24.52|
                          DCD      0x40020800
                  |L24.56|
                          DCD      __delay
                  |L24.60|
                          DCD      0x40020818

                          AREA ||i.tft_set_bg_color||, CODE, READONLY, ALIGN=2

                  tft_set_bg_color PROC
;;;301      */
;;;302    void tft_set_bg_color(uint16_t in_bg_color) {
000000  4901              LDR      r1,|L25.8|
;;;303    	curr_bg_color = in_bg_color;
000002  80c8              STRH     r0,[r1,#6]
;;;304    }
000004  4770              BX       lr
;;;305    
                          ENDP

000006  0000              DCW      0x0000
                  |L25.8|
                          DCD      ||.data||

                          AREA ||i.tft_set_highlight_color||, CODE, READONLY, ALIGN=2

                  tft_set_highlight_color PROC
;;;310      */
;;;311    void tft_set_highlight_color(uint16_t highlight_color) {
000000  4901              LDR      r1,|L26.8|
;;;312    	curr_highlight_color = highlight_color;
000002  8108              STRH     r0,[r1,#8]
;;;313    }
000004  4770              BX       lr
;;;314    
                          ENDP

000006  0000              DCW      0x0000
                  |L26.8|
                          DCD      ||.data||

                          AREA ||i.tft_set_special_color||, CODE, READONLY, ALIGN=2

                  tft_set_special_color PROC
;;;328      */
;;;329    void tft_set_special_color(uint16_t text_color_sp) {
000000  4901              LDR      r1,|L27.8|
;;;330    	curr_text_color_sp = text_color_sp;
000002  8188              STRH     r0,[r1,#0xc]
;;;331    }
000004  4770              BX       lr
;;;332    
                          ENDP

000006  0000              DCW      0x0000
                  |L27.8|
                          DCD      ||.data||

                          AREA ||i.tft_set_text_color||, CODE, READONLY, ALIGN=2

                  tft_set_text_color PROC
;;;319      */
;;;320    void tft_set_text_color(uint16_t in_text_color) {
000000  4901              LDR      r1,|L28.8|
;;;321    	curr_text_color = in_text_color;
000002  8148              STRH     r0,[r1,#0xa]
;;;322    }
000004  4770              BX       lr
;;;323    
                          ENDP

000006  0000              DCW      0x0000
                  |L28.8|
                          DCD      ||.data||

                          AREA ||i.tft_spi_init||, CODE, READONLY, ALIGN=2

                  tft_spi_init PROC
;;;158      */
;;;159    void tft_spi_init(void) {
000000  480d              LDR      r0,|L29.56|
000002  6841              LDR      r1,[r0,#4]
000004  f0410102          ORR      r1,r1,#2
000008  6041              STR      r1,[r0,#4]
;;;160    	LL_SPI_EnableDMAReq_TX(TFT_SPI);
;;;161    	TFT_DMA->PAR = (uint32_t) &TFT_SPI->DR;
00000a  4a0d              LDR      r2,|L29.64|
00000c  490b              LDR      r1,|L29.60|
00000e  6011              STR      r1,[r2,#0]
000010  6801              LDR      r1,[r0,#0]
000012  f0410140          ORR      r1,r1,#0x40
000016  6001              STR      r1,[r0,#0]
000018  490a              LDR      r1,|L29.68|
;;;162    	// TFT_DMA->CR |= DMA_SxCR_DIR_0;
;;;163    	LL_SPI_Enable(TFT_SPI);
;;;164    
;;;165    	gpio_set(TFT_DC);
00001a  2020              MOVS     r0,#0x20
00001c  6188              STR      r0,[r1,#0x18]
;;;166    	gpio_reset(TFT_LED);
00001e  490a              LDR      r1,|L29.72|
000020  0440              LSLS     r0,r0,#17
000022  6188              STR      r0,[r1,#0x18]
;;;167    	
;;;168    	dma_transfer(TFT_DMA, (void*)0x20000000, 16);
000024  01c2              LSLS     r2,r0,#7
000026  4809              LDR      r0,|L29.76|
000028  2110              MOVS     r1,#0x10
00002a  60c2              STR      r2,[r0,#0xc]
00002c  6041              STR      r1,[r0,#4]
00002e  6801              LDR      r1,[r0,#0]
000030  f0410101          ORR      r1,r1,#1
000034  6001              STR      r1,[r0,#0]
;;;169    }
000036  4770              BX       lr
;;;170    
                          ENDP

                  |L29.56|
                          DCD      0x40013000
                  |L29.60|
                          DCD      0x4001300c
                  |L29.64|
                          DCD      0x40026490
                  |L29.68|
                          DCD      0x40020800
                  |L29.72|
                          DCD      0x40020000
                  |L29.76|
                          DCD      0x40026488

                          AREA ||i.tft_update||, CODE, READONLY, ALIGN=2

                  tft_update PROC
;;;564      */
;;;565    void tft_update(void) {
000000  e92d4ff0          PUSH     {r4-r11,lr}
;;;566    	int16_t adj_cnt = 0;
;;;567    	uint16_t color;
;;;568    	uint8_t char_cnt = 0;
;;;569    	uint8_t y = 0;
;;;570    
;;;571    	for (uint8_t j = 0; j < char_max_y; j++) {
000004  48cb              LDR      r0,|L30.820|
000006  b097              SUB      sp,sp,#0x5c           ;565
000008  2700              MOVS     r7,#0                 ;568
00000a  7883              LDRB     r3,[r0,#2]  ; char_max_y
;;;572    		for (uint8_t i = 0; i < char_max_x; i++) {
;;;573    			if (tft_char_is_changed(i, j)) {
;;;574    				adj_cnt = 1;
;;;575    				while ((i + adj_cnt < char_max_x) && tft_char_is_changed(i + (adj_cnt), j)) adj_cnt++; //Search for diff char
;;;576    				tft_set_region(i*CHAR_WIDTH, j*CHAR_HEIGHT, adj_cnt*CHAR_WIDTH-1, CHAR_HEIGHT-1);
;;;577    				
;;;578    				y = 0;
;;;579    				while (y < CHAR_HEIGHT) {
;;;580    					uint8_t char_line = CHAR_PTR(text_buf[cur_screen][i + char_cnt][j])[y];
;;;581    					for (uint8_t x = CHAR_WIDTH; x > 0; x--) {
;;;582    						color = (char_line >> (x - 1) & 0x01) ? text_color_buf[cur_screen][i + char_cnt][j] : bg_color_buf[cur_screen][i + char_cnt][j];
00000c  78c2              LDRB     r2,[r0,#3]
00000e  9212              STR      r2,[sp,#0x48]
000010  7900              LDRB     r0,[r0,#4]
000012  4639              MOV      r1,r7                 ;571
000014  9011              STR      r0,[sp,#0x44]         ;571
000016  2b00              CMP      r3,#0                 ;571
000018  f240817b          BLS.W    |L30.786|
00001c  f8dfc314          LDR      r12,|L30.820|
000020  f89cc001          LDRB     r12,[r12,#1]          ;575  ; char_max_x
000024  e9cdc30a          STRD     r12,r3,[sp,#0x28]     ;575
000028  eb0003c0          ADD      r3,r0,r0,LSL #3       ;575
00002c  f8dfc308          LDR      r12,|L30.824|
000030  eb031000          ADD      r0,r3,r0,LSL #4       ;575
000034  eb0c1340          ADD      r3,r12,r0,LSL #5      ;575
000038  9308              STR      r3,[sp,#0x20]         ;575
00003a  f50c63c8          ADD      r3,r12,#0x640         ;575
00003e  eb031480          ADD      r4,r3,r0,LSL #6       ;575
000042  9407              STR      r4,[sp,#0x1c]         ;575
000044  f5036448          ADD      r4,r3,#0xc80          ;575
000048  eb041080          ADD      r0,r4,r0,LSL #6       ;575
00004c  9006              STR      r0,[sp,#0x18]         ;575
00004e  eb0200c2          ADD      r0,r2,r2,LSL #3       ;575
000052  eb001002          ADD      r0,r0,r2,LSL #4       ;575
000056  eb0c1e40          ADD      lr,r12,r0,LSL #5      ;575
00005a  eb031280          ADD      r2,r3,r0,LSL #6       ;575
00005e  eb041080          ADD      r0,r4,r0,LSL #6       ;575
000062  e9cd0203          STRD     r0,r2,[sp,#0xc]       ;575
                  |L30.102|
000066  980a              LDR      r0,[sp,#0x28]         ;572
000068  2500              MOVS     r5,#0                 ;572
00006a  2800              CMP      r0,#0                 ;572
00006c  f240814b          BLS.W    |L30.774|
000070  0108              LSLS     r0,r1,#4              ;572
000072  9010              STR      r0,[sp,#0x40]         ;576
000074  300f              ADDS     r0,r0,#0xf            ;576
000076  9013              STR      r0,[sp,#0x4c]         ;576
                  |L30.120|
000078  eb050085          ADD      r0,r5,r5,LSL #2       ;576
00007c  eb0e0280          ADD      r2,lr,r0,LSL #2       ;576
000080  5c53              LDRB     r3,[r2,r1]            ;576
000082  9a08              LDR      r2,[sp,#0x20]         ;576
000084  eb020280          ADD      r2,r2,r0,LSL #2       ;576
000088  5c52              LDRB     r2,[r2,r1]            ;576
00008a  4293              CMP      r3,r2                 ;576
00008c  d118              BNE      |L30.192|
00008e  9a04              LDR      r2,[sp,#0x10]         ;573
000090  eb0203c0          ADD      r3,r2,r0,LSL #3       ;573
000094  9a07              LDR      r2,[sp,#0x1c]         ;573
000096  f8333011          LDRH     r3,[r3,r1,LSL #1]     ;573
00009a  eb020cc0          ADD      r12,r2,r0,LSL #3      ;573
00009e  f83c2011          LDRH     r2,[r12,r1,LSL #1]    ;573
0000a2  4293              CMP      r3,r2                 ;573
0000a4  d10c              BNE      |L30.192|
0000a6  9a03              LDR      r2,[sp,#0xc]          ;573
0000a8  eb0203c0          ADD      r3,r2,r0,LSL #3       ;573
0000ac  9a06              LDR      r2,[sp,#0x18]         ;573
0000ae  f8333011          LDRH     r3,[r3,r1,LSL #1]     ;573
0000b2  eb0202c0          ADD      r2,r2,r0,LSL #3       ;573
0000b6  f8320011          LDRH     r0,[r2,r1,LSL #1]     ;573
0000ba  4283              CMP      r3,r0                 ;573
0000bc  f000811d          BEQ.W    |L30.762|
                  |L30.192|
0000c0  2601              MOVS     r6,#1                 ;574
                  |L30.194|
0000c2  9a0a              LDR      r2,[sp,#0x28]         ;575
0000c4  19a8              ADDS     r0,r5,r6              ;575
0000c6  4290              CMP      r0,r2                 ;575
0000c8  da26              BGE      |L30.280|
0000ca  b2c0              UXTB     r0,r0                 ;575
0000cc  eb000080          ADD      r0,r0,r0,LSL #2       ;575
0000d0  eb0e0280          ADD      r2,lr,r0,LSL #2       ;575
0000d4  5c53              LDRB     r3,[r2,r1]            ;575
0000d6  9a08              LDR      r2,[sp,#0x20]         ;575
0000d8  eb020280          ADD      r2,r2,r0,LSL #2       ;575
0000dc  5c52              LDRB     r2,[r2,r1]            ;575
0000de  4293              CMP      r3,r2                 ;575
0000e0  d117              BNE      |L30.274|
0000e2  9a04              LDR      r2,[sp,#0x10]         ;575
0000e4  eb0202c0          ADD      r2,r2,r0,LSL #3       ;575
0000e8  f8323011          LDRH     r3,[r2,r1,LSL #1]     ;575
0000ec  9a07              LDR      r2,[sp,#0x1c]         ;575
0000ee  eb020cc0          ADD      r12,r2,r0,LSL #3      ;575
0000f2  f83c2011          LDRH     r2,[r12,r1,LSL #1]    ;575
0000f6  4293              CMP      r3,r2                 ;575
0000f8  d10b              BNE      |L30.274|
0000fa  9a03              LDR      r2,[sp,#0xc]          ;575
0000fc  eb0203c0          ADD      r3,r2,r0,LSL #3       ;575
000100  9a06              LDR      r2,[sp,#0x18]         ;575
000102  f8333011          LDRH     r3,[r3,r1,LSL #1]     ;575
000106  eb0202c0          ADD      r2,r2,r0,LSL #3       ;575
00010a  f8320011          LDRH     r0,[r2,r1,LSL #1]     ;575
00010e  4283              CMP      r3,r0                 ;575
000110  d002              BEQ      |L30.280|
                  |L30.274|
000112  1c70              ADDS     r0,r6,#1              ;575
000114  b206              SXTH     r6,r0                 ;575
000116  e7d4              B        |L30.194|
                  |L30.280|
000118  f04f30ff          MOV      r0,#0xffffffff        ;576
00011c  ea4f08c5          LSL      r8,r5,#3              ;576
000120  eb0000c6          ADD      r0,r0,r6,LSL #3       ;576
000124  4440              ADD      r0,r0,r8              ;576
000126  b284              UXTH     r4,r0                 ;576
000128  9813              LDR      r0,[sp,#0x4c]         ;576
00012a  9b10              LDR      r3,[sp,#0x40]         ;576
00012c  fa1ffc80          UXTH     r12,r0                ;576
000130  222a              MOVS     r2,#0x2a              ;576
000132  b672              CPSID    i                     ;576
000134  4881              LDR      r0,|L30.828|
000136  bf00              NOP                            ;576
                  |L30.312|
000138  f8d09008          LDR      r9,[r0,#8]            ;576
00013c  f0190f80          TST      r9,#0x80              ;576
000140  d1fa              BNE      |L30.312|
000142  f8dfa1fc          LDR      r10,|L30.832|
000146  f44f1b00          MOV      r11,#0x200000         ;576
00014a  f8cab000          STR      r11,[r10,#0]          ;576
00014e  bf00              NOP                            ;576
                  |L30.336|
000150  f8d09008          LDR      r9,[r0,#8]            ;576
000154  f0190f02          TST      r9,#2                 ;576
000158  d0fa              BEQ      |L30.336|
00015a  60c2              STR      r2,[r0,#0xc]          ;576
                  |L30.348|
00015c  6882              LDR      r2,[r0,#8]            ;576
00015e  f0120f80          TST      r2,#0x80              ;576
000162  d0fb              BEQ      |L30.348|
                  |L30.356|
000164  6882              LDR      r2,[r0,#8]            ;576
000166  f0120f80          TST      r2,#0x80              ;576
00016a  d1fb              BNE      |L30.356|
00016c  f04f0920          MOV      r9,#0x20              ;576
000170  4652              MOV      r2,r10                ;576
000172  f8ca9000          STR      r9,[r10,#0]           ;576
000176  b662              CPSIE    i                     ;576
000178  ea4f2a18          LSR      r10,r8,#8             ;576
                  |L30.380|
00017c  f8d09008          LDR      r9,[r0,#8]            ;576
000180  f0190f02          TST      r9,#2                 ;576
000184  d0fa              BEQ      |L30.380|
000186  f8c0a00c          STR      r10,[r0,#0xc]         ;576
00018a  f00808ff          AND      r8,r8,#0xff           ;576
00018e  bf00              NOP                            ;576
                  |L30.400|
000190  f8d09008          LDR      r9,[r0,#8]            ;576
000194  f0190f02          TST      r9,#2                 ;576
000198  d0fa              BEQ      |L30.400|
00019a  f8c0800c          STR      r8,[r0,#0xc]          ;576
00019e  ea4f2914          LSR      r9,r4,#8              ;576
0001a2  bf00              NOP                            ;576
                  |L30.420|
0001a4  f8d08008          LDR      r8,[r0,#8]            ;576
0001a8  f0180f02          TST      r8,#2                 ;576
0001ac  d0fa              BEQ      |L30.420|
0001ae  f8c0900c          STR      r9,[r0,#0xc]          ;576
0001b2  b2e4              UXTB     r4,r4                 ;576
                  |L30.436|
0001b4  f8d08008          LDR      r8,[r0,#8]            ;576
0001b8  f0180f02          TST      r8,#2                 ;576
0001bc  d0fa              BEQ      |L30.436|
0001be  60c4              STR      r4,[r0,#0xc]          ;576
0001c0  f04f082b          MOV      r8,#0x2b              ;576
0001c4  b672              CPSID    i                     ;576
                  |L30.454|
0001c6  6884              LDR      r4,[r0,#8]            ;576
0001c8  f0140f80          TST      r4,#0x80              ;576
0001cc  d1fb              BNE      |L30.454|
0001ce  465c              MOV      r4,r11                ;576
0001d0  f8c2b000          STR      r11,[r2,#0]           ;576
                  |L30.468|
0001d4  f8d09008          LDR      r9,[r0,#8]            ;576
0001d8  f0190f02          TST      r9,#2                 ;576
0001dc  d0fa              BEQ      |L30.468|
0001de  f8c0800c          STR      r8,[r0,#0xc]          ;576
0001e2  bf00              NOP                            ;576
                  |L30.484|
0001e4  f8d08008          LDR      r8,[r0,#8]            ;576
0001e8  f0180f80          TST      r8,#0x80              ;576
0001ec  d0fa              BEQ      |L30.484|
0001ee  bf00              NOP                            ;576
                  |L30.496|
0001f0  f8d08008          LDR      r8,[r0,#8]            ;576
0001f4  f0180f80          TST      r8,#0x80              ;576
0001f8  d1fa              BNE      |L30.496|
0001fa  f04f0820          MOV      r8,#0x20              ;576
0001fe  f8c28000          STR      r8,[r2,#0]            ;576
000202  b662              CPSIE    i                     ;576
000204  ea4f2913          LSR      r9,r3,#8              ;576
                  |L30.520|
000208  f8d0a008          LDR      r10,[r0,#8]           ;576
00020c  f01a0f02          TST      r10,#2                ;576
000210  d0fa              BEQ      |L30.520|
000212  f8c0900c          STR      r9,[r0,#0xc]          ;576
000216  b2db              UXTB     r3,r3                 ;576
                  |L30.536|
000218  f8d09008          LDR      r9,[r0,#8]            ;576
00021c  f0190f02          TST      r9,#2                 ;576
000220  d0fa              BEQ      |L30.536|
000222  60c3              STR      r3,[r0,#0xc]          ;576
000224  ea4f291c          LSR      r9,r12,#8             ;576
                  |L30.552|
000228  6883              LDR      r3,[r0,#8]            ;576
00022a  f0130f02          TST      r3,#2                 ;576
00022e  d0fb              BEQ      |L30.552|
000230  f8c0900c          STR      r9,[r0,#0xc]          ;576
000234  f00c0cff          AND      r12,r12,#0xff         ;576
                  |L30.568|
000238  6883              LDR      r3,[r0,#8]            ;576
00023a  f0130f02          TST      r3,#2                 ;576
00023e  d0fb              BEQ      |L30.568|
000240  f8c0c00c          STR      r12,[r0,#0xc]         ;576
000244  232c              MOVS     r3,#0x2c              ;576
000246  b672              CPSID    i                     ;576
                  |L30.584|
000248  f8d0c008          LDR      r12,[r0,#8]           ;576
00024c  f01c0f80          TST      r12,#0x80             ;576
000250  d1fa              BNE      |L30.584|
000252  6014              STR      r4,[r2,#0]            ;576
                  |L30.596|
000254  f8d0c008          LDR      r12,[r0,#8]           ;576
000258  f01c0f02          TST      r12,#2                ;576
00025c  d0fa              BEQ      |L30.596|
00025e  60c3              STR      r3,[r0,#0xc]          ;576
                  |L30.608|
000260  6883              LDR      r3,[r0,#8]            ;576
000262  f0130f80          TST      r3,#0x80              ;576
000266  d0fb              BEQ      |L30.608|
                  |L30.616|
000268  6883              LDR      r3,[r0,#8]            ;576
00026a  f0130f80          TST      r3,#0x80              ;576
00026e  d1fb              BNE      |L30.616|
000270  f8c28000          STR      r8,[r2,#0]            ;576
000274  b662              CPSIE    i                     ;576
000276  f04f0800          MOV      r8,#0                 ;578
                  |L30.634|
00027a  19e8              ADDS     r0,r5,r7              ;580
00027c  eb000280          ADD      r2,r0,r0,LSL #2       ;580
000280  eb0e0082          ADD      r0,lr,r2,LSL #2       ;580
000284  5c43              LDRB     r3,[r0,r1]            ;580
000286  482f              LDR      r0,|L30.836|
000288  eb001003          ADD      r0,r0,r3,LSL #4       ;580
00028c  9b04              LDR      r3,[sp,#0x10]
00028e  4440              ADD      r0,r0,r8              ;580
000290  eb030bc2          ADD      r11,r3,r2,LSL #3
000294  9b03              LDR      r3,[sp,#0xc]
000296  f5a05080          SUB      r0,r0,#0x1000         ;580
00029a  eb030ac2          ADD      r10,r3,r2,LSL #3
00029e  f8909e00          LDRB     r9,[r0,#0xe00]        ;580
0002a2  4a26              LDR      r2,|L30.828|
0002a4  2008              MOVS     r0,#8                 ;581
                  |L30.678|
0002a6  1e44              SUBS     r4,r0,#1
0002a8  fa29f004          LSR      r0,r9,r4
0002ac  f0100f01          TST      r0,#1
0002b0  bf14              ITE      NE
0002b2  f83b3011          LDRHNE   r3,[r11,r1,LSL #1]
0002b6  f83a3011          LDRHEQ   r3,[r10,r1,LSL #1]
0002ba  ea4f2c13          LSR      r12,r3,#8
                  |L30.702|
0002be  6890              LDR      r0,[r2,#8]
0002c0  f0100f02          TST      r0,#2
0002c4  d0fb              BEQ      |L30.702|
0002c6  f8c2c00c          STR      r12,[r2,#0xc]
0002ca  b2d8              UXTB     r0,r3
                  |L30.716|
0002cc  6893              LDR      r3,[r2,#8]
0002ce  f0130f02          TST      r3,#2
0002d2  d0fb              BEQ      |L30.716|
0002d4  60d0              STR      r0,[r2,#0xc]
0002d6  f01400ff          ANDS     r0,r4,#0xff           ;581
0002da  d1e4              BNE      |L30.678|
;;;583    						tft_write_color(color);
;;;584    					}
;;;585    					if (++char_cnt == adj_cnt) {
0002dc  1c78              ADDS     r0,r7,#1
0002de  b2c7              UXTB     r7,r0
0002e0  42b7              CMP      r7,r6
0002e2  d104              BNE      |L30.750|
;;;586    						char_cnt = 0;
;;;587    						y++;
0002e4  f1080001          ADD      r0,r8,#1
0002e8  2700              MOVS     r7,#0                 ;586
0002ea  f00008ff          AND      r8,r0,#0xff
                  |L30.750|
0002ee  f1b80f10          CMP      r8,#0x10              ;579
0002f2  d3c2              BCC      |L30.634|
;;;588    					}
;;;589    				}
;;;590    				i += adj_cnt-1;
0002f4  19a8              ADDS     r0,r5,r6
0002f6  1e40              SUBS     r0,r0,#1
0002f8  b2c5              UXTB     r5,r0
                  |L30.762|
0002fa  1c68              ADDS     r0,r5,#1              ;572
0002fc  b2c5              UXTB     r5,r0                 ;572
0002fe  980a              LDR      r0,[sp,#0x28]         ;572
000300  4285              CMP      r5,r0                 ;572
000302  f4ffaeb9          BCC      |L30.120|
                  |L30.774|
000306  1c48              ADDS     r0,r1,#1              ;571
000308  b2c1              UXTB     r1,r0                 ;571
00030a  980b              LDR      r0,[sp,#0x2c]         ;571
00030c  4281              CMP      r1,r0                 ;571
00030e  f4ffaeaa          BCC      |L30.102|
                  |L30.786|
;;;591    			}
;;;592    		}
;;;593    	}
;;;594    	
;;;595    	// Swap pointers
;;;596    	cur_screen = (cur_screen == 0);
000312  9912              LDR      r1,[sp,#0x48]
000314  4807              LDR      r0,|L30.820|
000316  2900              CMP      r1,#0
000318  bf0c              ITE      EQ
00031a  2101              MOVEQ    r1,#1
00031c  2100              MOVNE    r1,#0
00031e  70c1              STRB     r1,[r0,#3]
;;;597    	next_screen = (next_screen == 0);
000320  9911              LDR      r1,[sp,#0x44]
000322  2900              CMP      r1,#0
000324  bf0c              ITE      EQ
000326  2101              MOVEQ    r1,#1
000328  2100              MOVNE    r1,#0
00032a  7101              STRB     r1,[r0,#4]
;;;598    }
00032c  b017              ADD      sp,sp,#0x5c
00032e  e8bd8ff0          POP      {r4-r11,pc}
;;;599    
                          ENDP

000332  0000              DCW      0x0000
                  |L30.820|
                          DCD      ||.data||
                  |L30.824|
                          DCD      ||.bss||
                  |L30.828|
                          DCD      0x40013000
                  |L30.832|
                          DCD      0x40020818
                  |L30.836|
                          DCD      ||.constdata||+0x4

                          AREA ||i.tft_update_dma||, CODE, READONLY, ALIGN=2

                  tft_update_dma PROC
;;;639    #define THREADED_TFT_BUF_LEN  CHAR_MAX_X
;;;640    void tft_update_dma(void) {
000000  e92d4ff0          PUSH     {r4-r11,lr}
000004  b084              SUB      sp,sp,#0x10
;;;641    	uint8_t buf_ptr = 0;
000006  2000              MOVS     r0,#0
;;;642    	static uint8_t tft_dma_bufs[2][CHAR_BYTES * THREADED_TFT_BUF_LEN];
;;;643    	
;;;644    	for (uint8_t j = 0; j < char_max_y; j++) {
000008  4604              MOV      r4,r0
00000a  9003              STR      r0,[sp,#0xc]
00000c  4884              LDR      r0,|L31.544|
00000e  7880              LDRB     r0,[r0,#2]  ; char_max_y
000010  2800              CMP      r0,#0
000012  f24080f5          BLS.W    |L31.512|
                  |L31.22|
;;;645    		for (uint8_t i = 0; i < char_max_x; i++) {
000016  4882              LDR      r0,|L31.544|
000018  2500              MOVS     r5,#0
00001a  7840              LDRB     r0,[r0,#1]  ; char_max_x
00001c  2800              CMP      r0,#0
00001e  bf84              ITT      HI
000020  0120              LSLHI    r0,r4,#4
;;;646    			if (tft_char_is_changed(i, j)) {
;;;647    				uint8_t adj_cnt = 1;
;;;648    				while ((i + adj_cnt < char_max_x) && tft_char_is_changed(i + (adj_cnt), j) && (adj_cnt < THREADED_TFT_BUF_LEN))
;;;649    					adj_cnt++; //Search for diff char
;;;650    
;;;651    				uint16_t px = 0;
;;;652    				uint16_t y = 0;
;;;653    				while (y < CHAR_HEIGHT) {
;;;654    					uint8_t char_cnt = 0;
;;;655    					while (char_cnt != adj_cnt) {
;;;656    						const uint8_t char_ptr = (CHAR_PTR(text_buf[cur_screen][i + char_cnt][j]))[y];
;;;657    						uint16_t fg = text_color_buf[cur_screen][i + char_cnt][j];
;;;658    						uint16_t bg = bg_color_buf[cur_screen][i + char_cnt][j];
;;;659    						for (uint8_t x = CHAR_WIDTH; x > 0; x--) {
;;;660    							// uint16_t color = 0xFFFF;
;;;661    							uint16_t color = ((char_ptr >> (x - 1)) & 0x01) ? fg : bg;
;;;662    							tft_dma_bufs[buf_ptr][px++] = color >> 8;
;;;663    							tft_dma_bufs[buf_ptr][px++] = color;
;;;664    						}
;;;665    						char_cnt++;
;;;666    					}
;;;667    					y++;
;;;668    				}
;;;669    
;;;670    				tft_push_pxbuf(&tft_dma_bufs[buf_ptr], i * CHAR_WIDTH, j * CHAR_HEIGHT, adj_cnt * CHAR_WIDTH, CHAR_HEIGHT);
000022  9002              STRHI    r0,[sp,#8]
000024  f24080e5          BLS.W    |L31.498|
                  |L31.40|
000028  497d              LDR      r1,|L31.544|
00002a  4b7e              LDR      r3,|L31.548|
00002c  78c8              LDRB     r0,[r1,#3]            ;645  ; cur_screen
00002e  7909              LDRB     r1,[r1,#4]            ;645  ; next_screen
000030  eb0002c0          ADD      r2,r0,r0,LSL #3       ;645
000034  eb021200          ADD      r2,r2,r0,LSL #4       ;645
000038  eb0106c1          ADD      r6,r1,r1,LSL #3       ;645
00003c  eb050085          ADD      r0,r5,r5,LSL #2       ;645
000040  eb061101          ADD      r1,r6,r1,LSL #4       ;645
000044  eb031942          ADD      r9,r3,r2,LSL #5       ;645
000048  eb031841          ADD      r8,r3,r1,LSL #5       ;645
00004c  eb090c80          ADD      r12,r9,r0,LSL #2      ;645
000050  eb080680          ADD      r6,r8,r0,LSL #2       ;645
000054  f81cc004          LDRB     r12,[r12,r4]          ;645
000058  5d36              LDRB     r6,[r6,r4]            ;645
00005a  45b4              CMP      r12,r6                ;645
00005c  d11f              BNE      |L31.158|
00005e  f5036cc8          ADD      r12,r3,#0x640         ;645
000062  eb0c1682          ADD      r6,r12,r2,LSL #6      ;645
000066  eb0c1c81          ADD      r12,r12,r1,LSL #6     ;645
00006a  eb0606c0          ADD      r6,r6,r0,LSL #3       ;645
00006e  eb0c0cc0          ADD      r12,r12,r0,LSL #3     ;645
000072  f8366014          LDRH     r6,[r6,r4,LSL #1]     ;645
000076  f83cc014          LDRH     r12,[r12,r4,LSL #1]   ;645
00007a  4566              CMP      r6,r12                ;645
00007c  d10f              BNE      |L31.158|
00007e  f5035c96          ADD      r12,r3,#0x12c0        ;645
000082  eb0c1682          ADD      r6,r12,r2,LSL #6      ;645
000086  eb0606c0          ADD      r6,r6,r0,LSL #3       ;645
00008a  eb0c1c81          ADD      r12,r12,r1,LSL #6     ;645
00008e  eb0c00c0          ADD      r0,r12,r0,LSL #3      ;645
000092  f8366014          LDRH     r6,[r6,r4,LSL #1]     ;645
000096  f8300014          LDRH     r0,[r0,r4,LSL #1]     ;645
00009a  4286              CMP      r6,r0                 ;645
00009c  d07e              BEQ      |L31.412|
                  |L31.158|
00009e  4b60              LDR      r3,|L31.544|
0000a0  4f61              LDR      r7,|L31.552|
0000a2  2601              MOVS     r6,#1                 ;647
0000a4  f893c001          LDRB     r12,[r3,#1]           ;645
0000a8  f5076e48          ADD      lr,r7,#0xc80          ;645
                  |L31.172|
0000ac  19a8              ADDS     r0,r5,r6              ;648
0000ae  4560              CMP      r0,r12                ;648
0000b0  d22d              BCS      |L31.270|
0000b2  b2c0              UXTB     r0,r0                 ;648
0000b4  eb000080          ADD      r0,r0,r0,LSL #2       ;648
0000b8  eb090a80          ADD      r10,r9,r0,LSL #2      ;648
0000bc  eb080b80          ADD      r11,r8,r0,LSL #2      ;648
0000c0  f81aa004          LDRB     r10,[r10,r4]          ;648
0000c4  f81bb004          LDRB     r11,[r11,r4]          ;648
0000c8  45da              CMP      r10,r11               ;648
0000ca  d11b              BNE      |L31.260|
0000cc  eb071a82          ADD      r10,r7,r2,LSL #6      ;648
0000d0  eb071b81          ADD      r11,r7,r1,LSL #6      ;648
0000d4  eb0a0ac0          ADD      r10,r10,r0,LSL #3     ;648
0000d8  eb0b0bc0          ADD      r11,r11,r0,LSL #3     ;648
0000dc  f83aa014          LDRH     r10,[r10,r4,LSL #1]   ;648
0000e0  f83bb014          LDRH     r11,[r11,r4,LSL #1]   ;648
0000e4  45da              CMP      r10,r11               ;648
0000e6  d10d              BNE      |L31.260|
0000e8  eb0e1b82          ADD      r11,lr,r2,LSL #6      ;648
0000ec  eb0b0bc0          ADD      r11,r11,r0,LSL #3     ;648
0000f0  eb0e1a81          ADD      r10,lr,r1,LSL #6      ;648
0000f4  eb0a00c0          ADD      r0,r10,r0,LSL #3      ;648
0000f8  f83bb014          LDRH     r11,[r11,r4,LSL #1]   ;648
0000fc  f8300014          LDRH     r0,[r0,r4,LSL #1]     ;648
000100  4583              CMP      r11,r0                ;648
000102  d004              BEQ      |L31.270|
                  |L31.260|
000104  2e28              CMP      r6,#0x28              ;648
000106  bf3c              ITT      CC                    ;649
000108  1c70              ADDCC    r0,r6,#1              ;649
00010a  b2c6              UXTBCC   r6,r0                 ;649
00010c  d3ce              BCC      |L31.172|
                  |L31.270|
00010e  9803              LDR      r0,[sp,#0xc]          ;659
000110  f04f0800          MOV      r8,#0                 ;651
000114  eb000180          ADD      r1,r0,r0,LSL #2       ;659
000118  4844              LDR      r0,|L31.556|
00011a  46c4              MOV      r12,r8                ;652
00011c  eb0020c1          ADD      r0,r0,r1,LSL #11      ;659
000120  9001              STR      r0,[sp,#4]            ;659
                  |L31.290|
000122  2700              MOVS     r7,#0                 ;654
000124  2e00              CMP      r6,#0                 ;655
000126  d047              BEQ      |L31.440|
                  |L31.296|
000128  483d              LDR      r0,|L31.544|
00012a  78c0              LDRB     r0,[r0,#3]            ;656  ; cur_screen
00012c  eb0001c0          ADD      r1,r0,r0,LSL #3       ;656
000130  eb011100          ADD      r1,r1,r0,LSL #4       ;656
000134  483b              LDR      r0,|L31.548|
000136  eb001241          ADD      r2,r0,r1,LSL #5       ;656
00013a  19e8              ADDS     r0,r5,r7              ;656
00013c  eb000080          ADD      r0,r0,r0,LSL #2       ;656
000140  eb020280          ADD      r2,r2,r0,LSL #2       ;656
000144  5d13              LDRB     r3,[r2,r4]            ;656
000146  4a3a              LDR      r2,|L31.560|
000148  eb021203          ADD      r2,r2,r3,LSL #4       ;656
00014c  4462              ADD      r2,r2,r12             ;656
00014e  f5a25280          SUB      r2,r2,#0x1000         ;656
000152  f8929e00          LDRB     r9,[r2,#0xe00]        ;656
000156  4a34              LDR      r2,|L31.552|
000158  eb021281          ADD      r2,r2,r1,LSL #6       ;657
00015c  eb0202c0          ADD      r2,r2,r0,LSL #3       ;657
000160  f832b014          LDRH     r11,[r2,r4,LSL #1]    ;657
000164  4a33              LDR      r2,|L31.564|
000166  eb021181          ADD      r1,r2,r1,LSL #6       ;658
00016a  eb0100c0          ADD      r0,r1,r0,LSL #3       ;658
00016e  2100              MOVS     r1,#0                 ;659
000170  f830a014          LDRH     r10,[r0,r4,LSL #1]    ;658
000174  9801              LDR      r0,[sp,#4]            ;659
000176  f05f0308          MOVS.W   r3,#8                 ;659
00017a  4440              ADD      r0,r0,r8              ;659
                  |L31.380|
00017c  f1c10207          RSB      r2,r1,#7              ;661
000180  fa29f202          LSR      r2,r9,r2              ;661
000184  f0120f01          TST      r2,#1                 ;661
000188  bf14              ITE      NE                    ;661
00018a  465a              MOVNE    r2,r11                ;661
00018c  4652              MOVEQ    r2,r10                ;661
00018e  ea4f2e12          LSR      lr,r2,#8              ;662
000192  f800eb01          STRB     lr,[r0],#1            ;662
000196  f8002b01          STRB     r2,[r0],#1            ;663
00019a  e000              B        |L31.414|
                  |L31.412|
00019c  e022              B        |L31.484|
                  |L31.414|
00019e  1e5a              SUBS     r2,r3,#1              ;664
0001a0  1c49              ADDS     r1,r1,#1              ;664
0001a2  f01203ff          ANDS     r3,r2,#0xff           ;664
0001a6  d1e9              BNE      |L31.380|
0001a8  f1080010          ADD      r0,r8,#0x10           ;664
0001ac  fa1ff880          UXTH     r8,r0                 ;664
0001b0  1c78              ADDS     r0,r7,#1              ;665
0001b2  b2c7              UXTB     r7,r0                 ;665
0001b4  42b7              CMP      r7,r6                 ;666
0001b6  d1b7              BNE      |L31.296|
                  |L31.440|
0001b8  f10c0001          ADD      r0,r12,#1             ;667
0001bc  fa1ffc80          UXTH     r12,r0                ;667
0001c0  f1bc0f10          CMP      r12,#0x10             ;668
0001c4  d3ad              BCC      |L31.290|
0001c6  2010              MOVS     r0,#0x10
0001c8  9000              STR      r0,[sp,#0]
0001ca  e9dd0201          LDRD     r0,r2,[sp,#4]
0001ce  00f3              LSLS     r3,r6,#3
0001d0  00e9              LSLS     r1,r5,#3
0001d2  f7fffffe          BL       tft_push_pxbuf
;;;671    				
;;;672    				buf_ptr ^= 0x1;
0001d6  9803              LDR      r0,[sp,#0xc]
0001d8  f0800001          EOR      r0,r0,#1
;;;673    				i += adj_cnt - 1;
0001dc  9003              STR      r0,[sp,#0xc]
0001de  19a8              ADDS     r0,r5,r6
0001e0  1e40              SUBS     r0,r0,#1
0001e2  b2c5              UXTB     r5,r0
                  |L31.484|
;;;674    			}
0001e4  1c68              ADDS     r0,r5,#1
0001e6  b2c5              UXTB     r5,r0
0001e8  480d              LDR      r0,|L31.544|
0001ea  7840              LDRB     r0,[r0,#1]  ; char_max_x
0001ec  4285              CMP      r5,r0
0001ee  f4ffaf1b          BCC      |L31.40|
                  |L31.498|
0001f2  1c60              ADDS     r0,r4,#1
0001f4  b2c4              UXTB     r4,r0
0001f6  480a              LDR      r0,|L31.544|
0001f8  7880              LDRB     r0,[r0,#2]  ; char_max_y
0001fa  4284              CMP      r4,r0
0001fc  f4ffaf0b          BCC      |L31.22|
                  |L31.512|
;;;675    		}
;;;676    	}
;;;677    
;;;678    	// Swap pointers
;;;679    	cur_screen = (cur_screen == 0);
000200  4807              LDR      r0,|L31.544|
000202  78c1              LDRB     r1,[r0,#3]  ; cur_screen
000204  2900              CMP      r1,#0
000206  bf0c              ITE      EQ
000208  2101              MOVEQ    r1,#1
00020a  2100              MOVNE    r1,#0
00020c  70c1              STRB     r1,[r0,#3]
;;;680    	next_screen = (next_screen == 0);
00020e  7901              LDRB     r1,[r0,#4]  ; next_screen
000210  2900              CMP      r1,#0
000212  bf0c              ITE      EQ
000214  2101              MOVEQ    r1,#1
000216  2100              MOVNE    r1,#0
000218  7101              STRB     r1,[r0,#4]
;;;681    }
00021a  b004              ADD      sp,sp,#0x10
00021c  e8bd8ff0          POP      {r4-r11,pc}
;;;682    
                          ENDP

                  |L31.544|
                          DCD      ||.data||
                  |L31.548|
                          DCD      ||.bss||
                  |L31.552|
                          DCD      ||.bss||+0x640
                  |L31.556|
                          DCD      ||.bss||+0x1f40
                  |L31.560|
                          DCD      ||.constdata||+0x4
                  |L31.564|
                          DCD      ||.bss||+0x12c0

                          AREA ||.bss||, DATA, NOINIT, ALIGN=1

                  text_buf
                          %        1600
                  text_color_buf
                          %        3200
                  bg_color_buf
                          %        3200
                  tft_dma_bufs
                          %        20480

                          AREA ||.constdata||, DATA, READONLY, ALIGN=0

                  tft_orientation_init_code
000000  482888e8          DCB      0x48,0x28,0x88,0xe8
                  ascii_8x16
000004  00000000          DCB      0x00,0x00,0x00,0x00
000008  00000000          DCB      0x00,0x00,0x00,0x00
00000c  00000000          DCB      0x00,0x00,0x00,0x00
000010  00000000          DCB      0x00,0x00,0x00,0x00
000014  0000183c          DCB      0x00,0x00,0x18,0x3c
000018  3c3c1818          DCB      0x3c,0x3c,0x18,0x18
00001c  18001818          DCB      0x18,0x00,0x18,0x18
000020  00000000          DCB      0x00,0x00,0x00,0x00
000024  00666666          DCB      0x00,0x66,0x66,0x66
000028  24000000          DCB      0x24,0x00,0x00,0x00
00002c  00000000          DCB      0x00,0x00,0x00,0x00
000030  00000000          DCB      0x00,0x00,0x00,0x00
000034  0000006c          DCB      0x00,0x00,0x00,0x6c
000038  6cfe6c6c          DCB      0x6c,0xfe,0x6c,0x6c
00003c  6cfe6c6c          DCB      0x6c,0xfe,0x6c,0x6c
000040  00000000          DCB      0x00,0x00,0x00,0x00
000044  18187cc6          DCB      0x18,0x18,0x7c,0xc6
000048  c2c07c06          DCB      0xc2,0xc0,0x7c,0x06
00004c  86c67c18          DCB      0x86,0xc6,0x7c,0x18
000050  18000000          DCB      0x18,0x00,0x00,0x00
000054  00000000          DCB      0x00,0x00,0x00,0x00
000058  c2c60c18          DCB      0xc2,0xc6,0x0c,0x18
00005c  3060c686          DCB      0x30,0x60,0xc6,0x86
000060  00000000          DCB      0x00,0x00,0x00,0x00
000064  0000386c          DCB      0x00,0x00,0x38,0x6c
000068  6c3876dc          DCB      0x6c,0x38,0x76,0xdc
00006c  cccccc76          DCB      0xcc,0xcc,0xcc,0x76
000070  00000000          DCB      0x00,0x00,0x00,0x00
000074  00303030          DCB      0x00,0x30,0x30,0x30
000078  60000000          DCB      0x60,0x00,0x00,0x00
00007c  00000000          DCB      0x00,0x00,0x00,0x00
000080  00000000          DCB      0x00,0x00,0x00,0x00
000084  00000c18          DCB      0x00,0x00,0x0c,0x18
000088  30303030          DCB      0x30,0x30,0x30,0x30
00008c  3030180c          DCB      0x30,0x30,0x18,0x0c
000090  00000000          DCB      0x00,0x00,0x00,0x00
000094  00003018          DCB      0x00,0x00,0x30,0x18
000098  0c0c0c0c          DCB      0x0c,0x0c,0x0c,0x0c
00009c  0c0c1830          DCB      0x0c,0x0c,0x18,0x30
0000a0  00000000          DCB      0x00,0x00,0x00,0x00
0000a4  00000000          DCB      0x00,0x00,0x00,0x00
0000a8  00663cff          DCB      0x00,0x66,0x3c,0xff
0000ac  3c660000          DCB      0x3c,0x66,0x00,0x00
0000b0  00000000          DCB      0x00,0x00,0x00,0x00
0000b4  00000000          DCB      0x00,0x00,0x00,0x00
0000b8  0018187e          DCB      0x00,0x18,0x18,0x7e
0000bc  18180000          DCB      0x18,0x18,0x00,0x00
0000c0  00000000          DCB      0x00,0x00,0x00,0x00
0000c4  00000000          DCB      0x00,0x00,0x00,0x00
0000c8  00000000          DCB      0x00,0x00,0x00,0x00
0000cc  00181818          DCB      0x00,0x18,0x18,0x18
0000d0  30000000          DCB      0x30,0x00,0x00,0x00
0000d4  00000000          DCB      0x00,0x00,0x00,0x00
0000d8  000000fe          DCB      0x00,0x00,0x00,0xfe
0000dc  00000000          DCB      0x00,0x00,0x00,0x00
0000e0  00000000          DCB      0x00,0x00,0x00,0x00
0000e4  00000000          DCB      0x00,0x00,0x00,0x00
0000e8  00000000          DCB      0x00,0x00,0x00,0x00
0000ec  00001818          DCB      0x00,0x00,0x18,0x18
0000f0  00000000          DCB      0x00,0x00,0x00,0x00
0000f4  00000000          DCB      0x00,0x00,0x00,0x00
0000f8  02060c18          DCB      0x02,0x06,0x0c,0x18
0000fc  3060c080          DCB      0x30,0x60,0xc0,0x80
000100  00000000          DCB      0x00,0x00,0x00,0x00
000104  00007cc6          DCB      0x00,0x00,0x7c,0xc6
000108  c6ced6d6          DCB      0xc6,0xce,0xd6,0xd6
00010c  e6c6c67c          DCB      0xe6,0xc6,0xc6,0x7c
000110  00000000          DCB      0x00,0x00,0x00,0x00
000114  00001838          DCB      0x00,0x00,0x18,0x38
000118  78181818          DCB      0x78,0x18,0x18,0x18
00011c  1818187e          DCB      0x18,0x18,0x18,0x7e
000120  00000000          DCB      0x00,0x00,0x00,0x00
000124  00007cc6          DCB      0x00,0x00,0x7c,0xc6
000128  060c1830          DCB      0x06,0x0c,0x18,0x30
00012c  60c0c6fe          DCB      0x60,0xc0,0xc6,0xfe
000130  00000000          DCB      0x00,0x00,0x00,0x00
000134  00007cc6          DCB      0x00,0x00,0x7c,0xc6
000138  06063c06          DCB      0x06,0x06,0x3c,0x06
00013c  0606c67c          DCB      0x06,0x06,0xc6,0x7c
000140  00000000          DCB      0x00,0x00,0x00,0x00
000144  00000c1c          DCB      0x00,0x00,0x0c,0x1c
000148  3c6cccfe          DCB      0x3c,0x6c,0xcc,0xfe
00014c  0c0c0c1e          DCB      0x0c,0x0c,0x0c,0x1e
000150  00000000          DCB      0x00,0x00,0x00,0x00
000154  0000fec0          DCB      0x00,0x00,0xfe,0xc0
000158  c0c0fc0e          DCB      0xc0,0xc0,0xfc,0x0e
00015c  0606c67c          DCB      0x06,0x06,0xc6,0x7c
000160  00000000          DCB      0x00,0x00,0x00,0x00
000164  00003860          DCB      0x00,0x00,0x38,0x60
000168  c0c0fcc6          DCB      0xc0,0xc0,0xfc,0xc6
00016c  c6c6c67c          DCB      0xc6,0xc6,0xc6,0x7c
000170  00000000          DCB      0x00,0x00,0x00,0x00
000174  0000fec6          DCB      0x00,0x00,0xfe,0xc6
000178  06060c18          DCB      0x06,0x06,0x0c,0x18
00017c  30303030          DCB      0x30,0x30,0x30,0x30
000180  00000000          DCB      0x00,0x00,0x00,0x00
000184  00007cc6          DCB      0x00,0x00,0x7c,0xc6
000188  c6c67cc6          DCB      0xc6,0xc6,0x7c,0xc6
00018c  c6c6c67c          DCB      0xc6,0xc6,0xc6,0x7c
000190  00000000          DCB      0x00,0x00,0x00,0x00
000194  00007cc6          DCB      0x00,0x00,0x7c,0xc6
000198  c6c67e06          DCB      0xc6,0xc6,0x7e,0x06
00019c  06060c78          DCB      0x06,0x06,0x0c,0x78
0001a0  00000000          DCB      0x00,0x00,0x00,0x00
0001a4  00000000          DCB      0x00,0x00,0x00,0x00
0001a8  18180000          DCB      0x18,0x18,0x00,0x00
0001ac  00181800          DCB      0x00,0x18,0x18,0x00
0001b0  00000000          DCB      0x00,0x00,0x00,0x00
0001b4  00000000          DCB      0x00,0x00,0x00,0x00
0001b8  18180000          DCB      0x18,0x18,0x00,0x00
0001bc  00181830          DCB      0x00,0x18,0x18,0x30
0001c0  00000000          DCB      0x00,0x00,0x00,0x00
0001c4  00000006          DCB      0x00,0x00,0x00,0x06
0001c8  0c183060          DCB      0x0c,0x18,0x30,0x60
0001cc  30180c06          DCB      0x30,0x18,0x0c,0x06
0001d0  00000000          DCB      0x00,0x00,0x00,0x00
0001d4  00000000          DCB      0x00,0x00,0x00,0x00
0001d8  0000fe00          DCB      0x00,0x00,0xfe,0x00
0001dc  00fe0000          DCB      0x00,0xfe,0x00,0x00
0001e0  00000000          DCB      0x00,0x00,0x00,0x00
0001e4  00000060          DCB      0x00,0x00,0x00,0x60
0001e8  30180c06          DCB      0x30,0x18,0x0c,0x06
0001ec  0c183060          DCB      0x0c,0x18,0x30,0x60
0001f0  00000000          DCB      0x00,0x00,0x00,0x00
0001f4  00007cc6          DCB      0x00,0x00,0x7c,0xc6
0001f8  c60c1818          DCB      0xc6,0x0c,0x18,0x18
0001fc  18001818          DCB      0x18,0x00,0x18,0x18
000200  00000000          DCB      0x00,0x00,0x00,0x00
000204  0000007c          DCB      0x00,0x00,0x00,0x7c
000208  c6c6dede          DCB      0xc6,0xc6,0xde,0xde
00020c  dedcc07c          DCB      0xde,0xdc,0xc0,0x7c
000210  00000000          DCB      0x00,0x00,0x00,0x00
000214  00001038          DCB      0x00,0x00,0x10,0x38
000218  6cc6c6fe          DCB      0x6c,0xc6,0xc6,0xfe
00021c  c6c6c6c6          DCB      0xc6,0xc6,0xc6,0xc6
000220  00000000          DCB      0x00,0x00,0x00,0x00
000224  0000fc66          DCB      0x00,0x00,0xfc,0x66
000228  66667c66          DCB      0x66,0x66,0x7c,0x66
00022c  666666fc          DCB      0x66,0x66,0x66,0xfc
000230  00000000          DCB      0x00,0x00,0x00,0x00
000234  00003c66          DCB      0x00,0x00,0x3c,0x66
000238  c2c0c0c0          DCB      0xc2,0xc0,0xc0,0xc0
00023c  c0c2663c          DCB      0xc0,0xc2,0x66,0x3c
000240  00000000          DCB      0x00,0x00,0x00,0x00
000244  0000f86c          DCB      0x00,0x00,0xf8,0x6c
000248  66666666          DCB      0x66,0x66,0x66,0x66
00024c  66666cf8          DCB      0x66,0x66,0x6c,0xf8
000250  00000000          DCB      0x00,0x00,0x00,0x00
000254  0000fe66          DCB      0x00,0x00,0xfe,0x66
000258  62687868          DCB      0x62,0x68,0x78,0x68
00025c  606266fe          DCB      0x60,0x62,0x66,0xfe
000260  00000000          DCB      0x00,0x00,0x00,0x00
000264  0000fe66          DCB      0x00,0x00,0xfe,0x66
000268  62687868          DCB      0x62,0x68,0x78,0x68
00026c  606060f0          DCB      0x60,0x60,0x60,0xf0
000270  00000000          DCB      0x00,0x00,0x00,0x00
000274  00003c66          DCB      0x00,0x00,0x3c,0x66
000278  c2c0c0de          DCB      0xc2,0xc0,0xc0,0xde
00027c  c6c6663a          DCB      0xc6,0xc6,0x66,0x3a
000280  00000000          DCB      0x00,0x00,0x00,0x00
000284  0000c6c6          DCB      0x00,0x00,0xc6,0xc6
000288  c6c6fec6          DCB      0xc6,0xc6,0xfe,0xc6
00028c  c6c6c6c6          DCB      0xc6,0xc6,0xc6,0xc6
000290  00000000          DCB      0x00,0x00,0x00,0x00
000294  00003c18          DCB      0x00,0x00,0x3c,0x18
000298  18181818          DCB      0x18,0x18,0x18,0x18
00029c  1818183c          DCB      0x18,0x18,0x18,0x3c
0002a0  00000000          DCB      0x00,0x00,0x00,0x00
0002a4  00001e0c          DCB      0x00,0x00,0x1e,0x0c
0002a8  0c0c0c0c          DCB      0x0c,0x0c,0x0c,0x0c
0002ac  cccccc78          DCB      0xcc,0xcc,0xcc,0x78
0002b0  00000000          DCB      0x00,0x00,0x00,0x00
0002b4  0000e666          DCB      0x00,0x00,0xe6,0x66
0002b8  6c6c7878          DCB      0x6c,0x6c,0x78,0x78
0002bc  6c6666e6          DCB      0x6c,0x66,0x66,0xe6
0002c0  00000000          DCB      0x00,0x00,0x00,0x00
0002c4  0000f060          DCB      0x00,0x00,0xf0,0x60
0002c8  60606060          DCB      0x60,0x60,0x60,0x60
0002cc  606266fe          DCB      0x60,0x62,0x66,0xfe
0002d0  00000000          DCB      0x00,0x00,0x00,0x00
0002d4  0000c6ee          DCB      0x00,0x00,0xc6,0xee
0002d8  fefed6c6          DCB      0xfe,0xfe,0xd6,0xc6
0002dc  c6c6c6c6          DCB      0xc6,0xc6,0xc6,0xc6
0002e0  00000000          DCB      0x00,0x00,0x00,0x00
0002e4  0000c6e6          DCB      0x00,0x00,0xc6,0xe6
0002e8  f6fedece          DCB      0xf6,0xfe,0xde,0xce
0002ec  c6c6c6c6          DCB      0xc6,0xc6,0xc6,0xc6
0002f0  00000000          DCB      0x00,0x00,0x00,0x00
0002f4  0000386c          DCB      0x00,0x00,0x38,0x6c
0002f8  c6c6c6c6          DCB      0xc6,0xc6,0xc6,0xc6
0002fc  c6c66c38          DCB      0xc6,0xc6,0x6c,0x38
000300  00000000          DCB      0x00,0x00,0x00,0x00
000304  0000fc66          DCB      0x00,0x00,0xfc,0x66
000308  66667c60          DCB      0x66,0x66,0x7c,0x60
00030c  606060f0          DCB      0x60,0x60,0x60,0xf0
000310  00000000          DCB      0x00,0x00,0x00,0x00
000314  00007cc6          DCB      0x00,0x00,0x7c,0xc6
000318  c6c6c6c6          DCB      0xc6,0xc6,0xc6,0xc6
00031c  c6d6de7c          DCB      0xc6,0xd6,0xde,0x7c
000320  0c0e0000          DCB      0x0c,0x0e,0x00,0x00
000324  0000fc66          DCB      0x00,0x00,0xfc,0x66
000328  66667c6c          DCB      0x66,0x66,0x7c,0x6c
00032c  666666e6          DCB      0x66,0x66,0x66,0xe6
000330  00000000          DCB      0x00,0x00,0x00,0x00
000334  00007cc6          DCB      0x00,0x00,0x7c,0xc6
000338  c660380c          DCB      0xc6,0x60,0x38,0x0c
00033c  06c6c67c          DCB      0x06,0xc6,0xc6,0x7c
000340  00000000          DCB      0x00,0x00,0x00,0x00
000344  00007e7e          DCB      0x00,0x00,0x7e,0x7e
000348  5a181818          DCB      0x5a,0x18,0x18,0x18
00034c  1818183c          DCB      0x18,0x18,0x18,0x3c
000350  00000000          DCB      0x00,0x00,0x00,0x00
000354  0000c6c6          DCB      0x00,0x00,0xc6,0xc6
000358  c6c6c6c6          DCB      0xc6,0xc6,0xc6,0xc6
00035c  c6c6c67c          DCB      0xc6,0xc6,0xc6,0x7c
000360  00000000          DCB      0x00,0x00,0x00,0x00
000364  0000c6c6          DCB      0x00,0x00,0xc6,0xc6
000368  c6c6c6c6          DCB      0xc6,0xc6,0xc6,0xc6
00036c  c66c3810          DCB      0xc6,0x6c,0x38,0x10
000370  00000000          DCB      0x00,0x00,0x00,0x00
000374  0000c6c6          DCB      0x00,0x00,0xc6,0xc6
000378  c6c6c6d6          DCB      0xc6,0xc6,0xc6,0xd6
00037c  d6fe6c6c          DCB      0xd6,0xfe,0x6c,0x6c
000380  00000000          DCB      0x00,0x00,0x00,0x00
000384  0000c6c6          DCB      0x00,0x00,0xc6,0xc6
000388  6c6c3838          DCB      0x6c,0x6c,0x38,0x38
00038c  6c6cc6c6          DCB      0x6c,0x6c,0xc6,0xc6
000390  00000000          DCB      0x00,0x00,0x00,0x00
000394  00006666          DCB      0x00,0x00,0x66,0x66
000398  66663c18          DCB      0x66,0x66,0x3c,0x18
00039c  1818183c          DCB      0x18,0x18,0x18,0x3c
0003a0  00000000          DCB      0x00,0x00,0x00,0x00
0003a4  0000fec6          DCB      0x00,0x00,0xfe,0xc6
0003a8  860c1830          DCB      0x86,0x0c,0x18,0x30
0003ac  60c2c6fe          DCB      0x60,0xc2,0xc6,0xfe
0003b0  00000000          DCB      0x00,0x00,0x00,0x00
0003b4  00003c30          DCB      0x00,0x00,0x3c,0x30
0003b8  30303030          DCB      0x30,0x30,0x30,0x30
0003bc  3030303c          DCB      0x30,0x30,0x30,0x3c
0003c0  00000000          DCB      0x00,0x00,0x00,0x00
0003c4  00000080          DCB      0x00,0x00,0x00,0x80
0003c8  c0e07038          DCB      0xc0,0xe0,0x70,0x38
0003cc  1c0e0602          DCB      0x1c,0x0e,0x06,0x02
0003d0  00000000          DCB      0x00,0x00,0x00,0x00
0003d4  00003c0c          DCB      0x00,0x00,0x3c,0x0c
0003d8  0c0c0c0c          DCB      0x0c,0x0c,0x0c,0x0c
0003dc  0c0c0c3c          DCB      0x0c,0x0c,0x0c,0x3c
0003e0  00000000          DCB      0x00,0x00,0x00,0x00
0003e4  10386cc6          DCB      0x10,0x38,0x6c,0xc6
0003e8  00000000          DCB      0x00,0x00,0x00,0x00
0003ec  00000000          DCB      0x00,0x00,0x00,0x00
0003f0  00000000          DCB      0x00,0x00,0x00,0x00
0003f4  00000000          DCB      0x00,0x00,0x00,0x00
0003f8  00000000          DCB      0x00,0x00,0x00,0x00
0003fc  00000000          DCB      0x00,0x00,0x00,0x00
000400  00ff0000          DCB      0x00,0xff,0x00,0x00
000404  30301800          DCB      0x30,0x30,0x18,0x00
000408  00000000          DCB      0x00,0x00,0x00,0x00
00040c  00000000          DCB      0x00,0x00,0x00,0x00
000410  00000000          DCB      0x00,0x00,0x00,0x00
000414  00000000          DCB      0x00,0x00,0x00,0x00
000418  00780c7c          DCB      0x00,0x78,0x0c,0x7c
00041c  cccccc76          DCB      0xcc,0xcc,0xcc,0x76
000420  00000000          DCB      0x00,0x00,0x00,0x00
000424  0000e060          DCB      0x00,0x00,0xe0,0x60
000428  60786c66          DCB      0x60,0x78,0x6c,0x66
00042c  666666dc          DCB      0x66,0x66,0x66,0xdc
000430  00000000          DCB      0x00,0x00,0x00,0x00
000434  00000000          DCB      0x00,0x00,0x00,0x00
000438  007cc6c0          DCB      0x00,0x7c,0xc6,0xc0
00043c  c0c0c67c          DCB      0xc0,0xc0,0xc6,0x7c
000440  00000000          DCB      0x00,0x00,0x00,0x00
000444  00001c0c          DCB      0x00,0x00,0x1c,0x0c
000448  0c3c6ccc          DCB      0x0c,0x3c,0x6c,0xcc
00044c  cccccc76          DCB      0xcc,0xcc,0xcc,0x76
000450  00000000          DCB      0x00,0x00,0x00,0x00
000454  00000000          DCB      0x00,0x00,0x00,0x00
000458  007cc6fe          DCB      0x00,0x7c,0xc6,0xfe
00045c  c0c0c67c          DCB      0xc0,0xc0,0xc6,0x7c
000460  00000000          DCB      0x00,0x00,0x00,0x00
000464  0000386c          DCB      0x00,0x00,0x38,0x6c
000468  6460f060          DCB      0x64,0x60,0xf0,0x60
00046c  606060f0          DCB      0x60,0x60,0x60,0xf0
000470  00000000          DCB      0x00,0x00,0x00,0x00
000474  00000000          DCB      0x00,0x00,0x00,0x00
000478  0076cccc          DCB      0x00,0x76,0xcc,0xcc
00047c  cccccc7c          DCB      0xcc,0xcc,0xcc,0x7c
000480  0ccc7800          DCB      0x0c,0xcc,0x78,0x00
000484  0000e060          DCB      0x00,0x00,0xe0,0x60
000488  606c7666          DCB      0x60,0x6c,0x76,0x66
00048c  666666e6          DCB      0x66,0x66,0x66,0xe6
000490  00000000          DCB      0x00,0x00,0x00,0x00
000494  00001818          DCB      0x00,0x00,0x18,0x18
000498  00381818          DCB      0x00,0x38,0x18,0x18
00049c  1818183c          DCB      0x18,0x18,0x18,0x3c
0004a0  00000000          DCB      0x00,0x00,0x00,0x00
0004a4  00000606          DCB      0x00,0x00,0x06,0x06
0004a8  000e0606          DCB      0x00,0x0e,0x06,0x06
0004ac  06060606          DCB      0x06,0x06,0x06,0x06
0004b0  66663c00          DCB      0x66,0x66,0x3c,0x00
0004b4  0000e060          DCB      0x00,0x00,0xe0,0x60
0004b8  60666c78          DCB      0x60,0x66,0x6c,0x78
0004bc  786c66e6          DCB      0x78,0x6c,0x66,0xe6
0004c0  00000000          DCB      0x00,0x00,0x00,0x00
0004c4  00003818          DCB      0x00,0x00,0x38,0x18
0004c8  18181818          DCB      0x18,0x18,0x18,0x18
0004cc  1818183c          DCB      0x18,0x18,0x18,0x3c
0004d0  00000000          DCB      0x00,0x00,0x00,0x00
0004d4  00000000          DCB      0x00,0x00,0x00,0x00
0004d8  00ecfed6          DCB      0x00,0xec,0xfe,0xd6
0004dc  d6d6d6d6          DCB      0xd6,0xd6,0xd6,0xd6
0004e0  00000000          DCB      0x00,0x00,0x00,0x00
0004e4  00000000          DCB      0x00,0x00,0x00,0x00
0004e8  00dc6666          DCB      0x00,0xdc,0x66,0x66
0004ec  66666666          DCB      0x66,0x66,0x66,0x66
0004f0  00000000          DCB      0x00,0x00,0x00,0x00
0004f4  00000000          DCB      0x00,0x00,0x00,0x00
0004f8  007cc6c6          DCB      0x00,0x7c,0xc6,0xc6
0004fc  c6c6c67c          DCB      0xc6,0xc6,0xc6,0x7c
000500  00000000          DCB      0x00,0x00,0x00,0x00
000504  00000000          DCB      0x00,0x00,0x00,0x00
000508  00dc6666          DCB      0x00,0xdc,0x66,0x66
00050c  6666667c          DCB      0x66,0x66,0x66,0x7c
000510  6060f000          DCB      0x60,0x60,0xf0,0x00
000514  00000000          DCB      0x00,0x00,0x00,0x00
000518  0076cccc          DCB      0x00,0x76,0xcc,0xcc
00051c  cccccc7c          DCB      0xcc,0xcc,0xcc,0x7c
000520  0c0c1e00          DCB      0x0c,0x0c,0x1e,0x00
000524  00000000          DCB      0x00,0x00,0x00,0x00
000528  00dc7662          DCB      0x00,0xdc,0x76,0x62
00052c  606060f0          DCB      0x60,0x60,0x60,0xf0
000530  00000000          DCB      0x00,0x00,0x00,0x00
000534  00000000          DCB      0x00,0x00,0x00,0x00
000538  007cc660          DCB      0x00,0x7c,0xc6,0x60
00053c  380cc67c          DCB      0x38,0x0c,0xc6,0x7c
000540  00000000          DCB      0x00,0x00,0x00,0x00
000544  00001030          DCB      0x00,0x00,0x10,0x30
000548  30fc3030          DCB      0x30,0xfc,0x30,0x30
00054c  3030361c          DCB      0x30,0x30,0x36,0x1c
000550  00000000          DCB      0x00,0x00,0x00,0x00
000554  00000000          DCB      0x00,0x00,0x00,0x00
000558  00cccccc          DCB      0x00,0xcc,0xcc,0xcc
00055c  cccccc76          DCB      0xcc,0xcc,0xcc,0x76
000560  00000000          DCB      0x00,0x00,0x00,0x00
000564  00000000          DCB      0x00,0x00,0x00,0x00
000568  00666666          DCB      0x00,0x66,0x66,0x66
00056c  66663c18          DCB      0x66,0x66,0x3c,0x18
000570  00000000          DCB      0x00,0x00,0x00,0x00
000574  00000000          DCB      0x00,0x00,0x00,0x00
000578  00c6c6c6          DCB      0x00,0xc6,0xc6,0xc6
00057c  d6d6fe6c          DCB      0xd6,0xd6,0xfe,0x6c
000580  00000000          DCB      0x00,0x00,0x00,0x00
000584  00000000          DCB      0x00,0x00,0x00,0x00
000588  00c66c38          DCB      0x00,0xc6,0x6c,0x38
00058c  38386cc6          DCB      0x38,0x38,0x6c,0xc6
000590  00000000          DCB      0x00,0x00,0x00,0x00
000594  00000000          DCB      0x00,0x00,0x00,0x00
000598  00c6c6c6          DCB      0x00,0xc6,0xc6,0xc6
00059c  c6c6c67e          DCB      0xc6,0xc6,0xc6,0x7e
0005a0  060cf800          DCB      0x06,0x0c,0xf8,0x00
0005a4  00000000          DCB      0x00,0x00,0x00,0x00
0005a8  00fecc18          DCB      0x00,0xfe,0xcc,0x18
0005ac  3060c6fe          DCB      0x30,0x60,0xc6,0xfe
0005b0  00000000          DCB      0x00,0x00,0x00,0x00
0005b4  00000e18          DCB      0x00,0x00,0x0e,0x18
0005b8  18187018          DCB      0x18,0x18,0x70,0x18
0005bc  1818180e          DCB      0x18,0x18,0x18,0x0e
0005c0  00000000          DCB      0x00,0x00,0x00,0x00
0005c4  00001818          DCB      0x00,0x00,0x18,0x18
0005c8  18180018          DCB      0x18,0x18,0x00,0x18
0005cc  18181818          DCB      0x18,0x18,0x18,0x18
0005d0  00000000          DCB      0x00,0x00,0x00,0x00
0005d4  00007018          DCB      0x00,0x00,0x70,0x18
0005d8  18180e18          DCB      0x18,0x18,0x0e,0x18
0005dc  18181870          DCB      0x18,0x18,0x18,0x70
0005e0  00000000          DCB      0x00,0x00,0x00,0x00
0005e4  000076dc          DCB      0x00,0x00,0x76,0xdc
0005e8  00000000          DCB      0x00,0x00,0x00,0x00
0005ec  00000000          DCB      0x00,0x00,0x00,0x00
0005f0  00000000          DCB      0x00,0x00,0x00,0x00
0005f4  ffffffff          DCB      0xff,0xff,0xff,0xff
0005f8  ffffffff          DCB      0xff,0xff,0xff,0xff
0005fc  ffffffff          DCB      0xff,0xff,0xff,0xff
000600  ffffff00          DCB      0xff,0xff,0xff,0x00
000604  00000000          DCB      0x00,0x00,0x00,0x00
000608  00000000          DCB      0x00,0x00,0x00,0x00
00060c  00000000          DCB      0x00,0x00,0x00,0x00
000610  00000000          DCB      0x00,0x00,0x00,0x00
000614  00000000          DCB      0x00,0x00,0x00,0x00
000618  00000000          DCB      0x00,0x00,0x00,0x00
00061c  00000000          DCB      0x00,0x00,0x00,0x00
000620  00000000          DCB      0x00,0x00,0x00,0x00
000624  00000000          DCB      0x00,0x00,0x00,0x00
000628  00000000          DCB      0x00,0x00,0x00,0x00
00062c  00000000          DCB      0x00,0x00,0x00,0x00
000630  00000000          DCB      0x00,0x00,0x00,0x00
000634  007f4040          DCB      0x00,0x7f,0x40,0x40
000638  405e4040          DCB      0x40,0x5e,0x40,0x40
00063c  40404047          DCB      0x40,0x40,0x40,0x47
000640  40407f00          DCB      0x40,0x40,0x7f,0x00
000644  00fe0202          DCB      0x00,0xfe,0x02,0x02
000648  027a0202          DCB      0x02,0x7a,0x02,0x02
00064c  020202e2          DCB      0x02,0x02,0x02,0xe2
000650  0202fe00          DCB      0x02,0x02,0xfe,0x00
000654  00000000          DCB      0x00,0x00,0x00,0x00
000658  00000000          DCB      0x00,0x00,0x00,0x00
00065c  00000000          DCB      0x00,0x00,0x00,0x00
000660  00000000          DCB      0x00,0x00,0x00,0x00
000664  00000000          DCB      0x00,0x00,0x00,0x00
000668  00000000          DCB      0x00,0x00,0x00,0x00
00066c  00000000          DCB      0x00,0x00,0x00,0x00
000670  00000000          DCB      0x00,0x00,0x00,0x00
000674  00000000          DCB      0x00,0x00,0x00,0x00
000678  00000000          DCB      0x00,0x00,0x00,0x00
00067c  00000000          DCB      0x00,0x00,0x00,0x00
000680  00000000          DCB      0x00,0x00,0x00,0x00
000684  00000000          DCB      0x00,0x00,0x00,0x00
000688  00000000          DCB      0x00,0x00,0x00,0x00
00068c  00000000          DCB      0x00,0x00,0x00,0x00
000690  00000000          DCB      0x00,0x00,0x00,0x00
000694  00000000          DCB      0x00,0x00,0x00,0x00
000698  00000000          DCB      0x00,0x00,0x00,0x00
00069c  00000000          DCB      0x00,0x00,0x00,0x00
0006a0  00000000          DCB      0x00,0x00,0x00,0x00
0006a4  00000000          DCB      0x00,0x00,0x00,0x00
0006a8  00000000          DCB      0x00,0x00,0x00,0x00
0006ac  00000000          DCB      0x00,0x00,0x00,0x00
0006b0  00000000          DCB      0x00,0x00,0x00,0x00
0006b4  00000000          DCB      0x00,0x00,0x00,0x00
0006b8  00000000          DCB      0x00,0x00,0x00,0x00
0006bc  00000000          DCB      0x00,0x00,0x00,0x00
0006c0  00000000          DCB      0x00,0x00,0x00,0x00
0006c4  00000000          DCB      0x00,0x00,0x00,0x00
0006c8  00000000          DCB      0x00,0x00,0x00,0x00
0006cc  00000000          DCB      0x00,0x00,0x00,0x00
0006d0  00000000          DCB      0x00,0x00,0x00,0x00
0006d4  00000000          DCB      0x00,0x00,0x00,0x00
0006d8  00000000          DCB      0x00,0x00,0x00,0x00
0006dc  00000000          DCB      0x00,0x00,0x00,0x00
0006e0  00000000          DCB      0x00,0x00,0x00,0x00
0006e4  00000000          DCB      0x00,0x00,0x00,0x00
0006e8  00000000          DCB      0x00,0x00,0x00,0x00
0006ec  00000000          DCB      0x00,0x00,0x00,0x00
0006f0  00000000          DCB      0x00,0x00,0x00,0x00
0006f4  00000000          DCB      0x00,0x00,0x00,0x00
0006f8  00000000          DCB      0x00,0x00,0x00,0x00
0006fc  00000000          DCB      0x00,0x00,0x00,0x00
000700  00000000          DCB      0x00,0x00,0x00,0x00
000704  00000000          DCB      0x00,0x00,0x00,0x00
000708  00000000          DCB      0x00,0x00,0x00,0x00
00070c  00000000          DCB      0x00,0x00,0x00,0x00
000710  00000000          DCB      0x00,0x00,0x00,0x00
000714  00000000          DCB      0x00,0x00,0x00,0x00
000718  00000000          DCB      0x00,0x00,0x00,0x00
00071c  00000000          DCB      0x00,0x00,0x00,0x00
000720  00000000          DCB      0x00,0x00,0x00,0x00
000724  00000000          DCB      0x00,0x00,0x00,0x00
000728  00000000          DCB      0x00,0x00,0x00,0x00
00072c  00000000          DCB      0x00,0x00,0x00,0x00
000730  00000000          DCB      0x00,0x00,0x00,0x00
000734  00000000          DCB      0x00,0x00,0x00,0x00
000738  00000000          DCB      0x00,0x00,0x00,0x00
00073c  00000000          DCB      0x00,0x00,0x00,0x00
000740  00000000          DCB      0x00,0x00,0x00,0x00
000744  00000000          DCB      0x00,0x00,0x00,0x00
000748  00000000          DCB      0x00,0x00,0x00,0x00
00074c  00000000          DCB      0x00,0x00,0x00,0x00
000750  00000000          DCB      0x00,0x00,0x00,0x00
000754  00000000          DCB      0x00,0x00,0x00,0x00
000758  00000000          DCB      0x00,0x00,0x00,0x00
00075c  00000000          DCB      0x00,0x00,0x00,0x00
000760  00000000          DCB      0x00,0x00,0x00,0x00
000764  00000000          DCB      0x00,0x00,0x00,0x00
000768  00000000          DCB      0x00,0x00,0x00,0x00
00076c  00000000          DCB      0x00,0x00,0x00,0x00
000770  00000000          DCB      0x00,0x00,0x00,0x00
000774  00000000          DCB      0x00,0x00,0x00,0x00
000778  00000000          DCB      0x00,0x00,0x00,0x00
00077c  00000000          DCB      0x00,0x00,0x00,0x00
000780  00000000          DCB      0x00,0x00,0x00,0x00
000784  00000000          DCB      0x00,0x00,0x00,0x00
000788  00000000          DCB      0x00,0x00,0x00,0x00
00078c  00000000          DCB      0x00,0x00,0x00,0x00
000790  00000000          DCB      0x00,0x00,0x00,0x00
000794  00000000          DCB      0x00,0x00,0x00,0x00
000798  00000000          DCB      0x00,0x00,0x00,0x00
00079c  00000000          DCB      0x00,0x00,0x00,0x00
0007a0  00000000          DCB      0x00,0x00,0x00,0x00
0007a4  00000000          DCB      0x00,0x00,0x00,0x00
0007a8  00000000          DCB      0x00,0x00,0x00,0x00
0007ac  00000000          DCB      0x00,0x00,0x00,0x00
0007b0  00000000          DCB      0x00,0x00,0x00,0x00
0007b4  00000000          DCB      0x00,0x00,0x00,0x00
0007b8  00000000          DCB      0x00,0x00,0x00,0x00
0007bc  00000000          DCB      0x00,0x00,0x00,0x00
0007c0  00000000          DCB      0x00,0x00,0x00,0x00
0007c4  00000000          DCB      0x00,0x00,0x00,0x00
0007c8  00000000          DCB      0x00,0x00,0x00,0x00
0007cc  00000000          DCB      0x00,0x00,0x00,0x00
0007d0  00000000          DCB      0x00,0x00,0x00,0x00
0007d4  00000000          DCB      0x00,0x00,0x00,0x00
0007d8  00000000          DCB      0x00,0x00,0x00,0x00
0007dc  00000000          DCB      0x00,0x00,0x00,0x00
0007e0  00000000          DCB      0x00,0x00,0x00,0x00
0007e4  00000000          DCB      0x00,0x00,0x00,0x00
0007e8  00000000          DCB      0x00,0x00,0x00,0x00
0007ec  00000000          DCB      0x00,0x00,0x00,0x00
0007f0  00000000          DCB      0x00,0x00,0x00,0x00
0007f4  00000000          DCB      0x00,0x00,0x00,0x00
0007f8  00000000          DCB      0x00,0x00,0x00,0x00
0007fc  00000000          DCB      0x00,0x00,0x00,0x00
000800  00000000          DCB      0x00,0x00,0x00,0x00
000804  00000000          DCB      0x00,0x00,0x00,0x00
000808  00000000          DCB      0x00,0x00,0x00,0x00
00080c  00000000          DCB      0x00,0x00,0x00,0x00
000810  00ff0000          DCB      0x00,0xff,0x00,0x00
000814  0000183c          DCB      0x00,0x00,0x18,0x3c
000818  3c3c1818          DCB      0x3c,0x3c,0x18,0x18
00081c  18001818          DCB      0x18,0x00,0x18,0x18
000820  00ff0000          DCB      0x00,0xff,0x00,0x00
000824  00666666          DCB      0x00,0x66,0x66,0x66
000828  24000000          DCB      0x24,0x00,0x00,0x00
00082c  00000000          DCB      0x00,0x00,0x00,0x00
000830  00ff0000          DCB      0x00,0xff,0x00,0x00
000834  0000006c          DCB      0x00,0x00,0x00,0x6c
000838  6cfe6c6c          DCB      0x6c,0xfe,0x6c,0x6c
00083c  6cfe6c6c          DCB      0x6c,0xfe,0x6c,0x6c
000840  00ff0000          DCB      0x00,0xff,0x00,0x00
000844  18187cc6          DCB      0x18,0x18,0x7c,0xc6
000848  c2c07c06          DCB      0xc2,0xc0,0x7c,0x06
00084c  86c67c18          DCB      0x86,0xc6,0x7c,0x18
000850  18ff0000          DCB      0x18,0xff,0x00,0x00
000854  00000000          DCB      0x00,0x00,0x00,0x00
000858  c2c60c18          DCB      0xc2,0xc6,0x0c,0x18
00085c  3060c686          DCB      0x30,0x60,0xc6,0x86
000860  00ff0000          DCB      0x00,0xff,0x00,0x00
000864  0000386c          DCB      0x00,0x00,0x38,0x6c
000868  6c3876dc          DCB      0x6c,0x38,0x76,0xdc
00086c  cccccc76          DCB      0xcc,0xcc,0xcc,0x76
000870  00ff0000          DCB      0x00,0xff,0x00,0x00
000874  00303030          DCB      0x00,0x30,0x30,0x30
000878  60000000          DCB      0x60,0x00,0x00,0x00
00087c  00000000          DCB      0x00,0x00,0x00,0x00
000880  00ff0000          DCB      0x00,0xff,0x00,0x00
000884  00000c18          DCB      0x00,0x00,0x0c,0x18
000888  30303030          DCB      0x30,0x30,0x30,0x30
00088c  3030180c          DCB      0x30,0x30,0x18,0x0c
000890  00ff0000          DCB      0x00,0xff,0x00,0x00
000894  00003018          DCB      0x00,0x00,0x30,0x18
000898  0c0c0c0c          DCB      0x0c,0x0c,0x0c,0x0c
00089c  0c0c1830          DCB      0x0c,0x0c,0x18,0x30
0008a0  00ff0000          DCB      0x00,0xff,0x00,0x00
0008a4  00000000          DCB      0x00,0x00,0x00,0x00
0008a8  00663cff          DCB      0x00,0x66,0x3c,0xff
0008ac  3c660000          DCB      0x3c,0x66,0x00,0x00
0008b0  00ff0000          DCB      0x00,0xff,0x00,0x00
0008b4  00000000          DCB      0x00,0x00,0x00,0x00
0008b8  0018187e          DCB      0x00,0x18,0x18,0x7e
0008bc  18180000          DCB      0x18,0x18,0x00,0x00
0008c0  00ff0000          DCB      0x00,0xff,0x00,0x00
0008c4  00000000          DCB      0x00,0x00,0x00,0x00
0008c8  00000000          DCB      0x00,0x00,0x00,0x00
0008cc  00181818          DCB      0x00,0x18,0x18,0x18
0008d0  30ff0000          DCB      0x30,0xff,0x00,0x00
0008d4  00000000          DCB      0x00,0x00,0x00,0x00
0008d8  000000fe          DCB      0x00,0x00,0x00,0xfe
0008dc  00000000          DCB      0x00,0x00,0x00,0x00
0008e0  00ff0000          DCB      0x00,0xff,0x00,0x00
0008e4  00000000          DCB      0x00,0x00,0x00,0x00
0008e8  00000000          DCB      0x00,0x00,0x00,0x00
0008ec  00001818          DCB      0x00,0x00,0x18,0x18
0008f0  00ff0000          DCB      0x00,0xff,0x00,0x00
0008f4  00000000          DCB      0x00,0x00,0x00,0x00
0008f8  02060c18          DCB      0x02,0x06,0x0c,0x18
0008fc  3060c080          DCB      0x30,0x60,0xc0,0x80
000900  00ff0000          DCB      0x00,0xff,0x00,0x00
000904  00007cc6          DCB      0x00,0x00,0x7c,0xc6
000908  c6ced6d6          DCB      0xc6,0xce,0xd6,0xd6
00090c  e6c6c67c          DCB      0xe6,0xc6,0xc6,0x7c
000910  00ff0000          DCB      0x00,0xff,0x00,0x00
000914  00001838          DCB      0x00,0x00,0x18,0x38
000918  78181818          DCB      0x78,0x18,0x18,0x18
00091c  1818187e          DCB      0x18,0x18,0x18,0x7e
000920  00ff0000          DCB      0x00,0xff,0x00,0x00
000924  00007cc6          DCB      0x00,0x00,0x7c,0xc6
000928  060c1830          DCB      0x06,0x0c,0x18,0x30
00092c  60c0c6fe          DCB      0x60,0xc0,0xc6,0xfe
000930  00ff0000          DCB      0x00,0xff,0x00,0x00
000934  00007cc6          DCB      0x00,0x00,0x7c,0xc6
000938  06063c06          DCB      0x06,0x06,0x3c,0x06
00093c  0606c67c          DCB      0x06,0x06,0xc6,0x7c
000940  00ff0000          DCB      0x00,0xff,0x00,0x00
000944  00000c1c          DCB      0x00,0x00,0x0c,0x1c
000948  3c6cccfe          DCB      0x3c,0x6c,0xcc,0xfe
00094c  0c0c0c1e          DCB      0x0c,0x0c,0x0c,0x1e
000950  00ff0000          DCB      0x00,0xff,0x00,0x00
000954  0000fec0          DCB      0x00,0x00,0xfe,0xc0
000958  c0c0fc0e          DCB      0xc0,0xc0,0xfc,0x0e
00095c  0606c67c          DCB      0x06,0x06,0xc6,0x7c
000960  00ff0000          DCB      0x00,0xff,0x00,0x00
000964  00003860          DCB      0x00,0x00,0x38,0x60
000968  c0c0fcc6          DCB      0xc0,0xc0,0xfc,0xc6
00096c  c6c6c67c          DCB      0xc6,0xc6,0xc6,0x7c
000970  00ff0000          DCB      0x00,0xff,0x00,0x00
000974  0000fec6          DCB      0x00,0x00,0xfe,0xc6
000978  06060c18          DCB      0x06,0x06,0x0c,0x18
00097c  30303030          DCB      0x30,0x30,0x30,0x30
000980  00ff0000          DCB      0x00,0xff,0x00,0x00
000984  00007cc6          DCB      0x00,0x00,0x7c,0xc6
000988  c6c67cc6          DCB      0xc6,0xc6,0x7c,0xc6
00098c  c6c6c67c          DCB      0xc6,0xc6,0xc6,0x7c
000990  00ff0000          DCB      0x00,0xff,0x00,0x00
000994  00007cc6          DCB      0x00,0x00,0x7c,0xc6
000998  c6c67e06          DCB      0xc6,0xc6,0x7e,0x06
00099c  06060c78          DCB      0x06,0x06,0x0c,0x78
0009a0  00ff0000          DCB      0x00,0xff,0x00,0x00
0009a4  00000000          DCB      0x00,0x00,0x00,0x00
0009a8  18180000          DCB      0x18,0x18,0x00,0x00
0009ac  00181800          DCB      0x00,0x18,0x18,0x00
0009b0  00ff0000          DCB      0x00,0xff,0x00,0x00
0009b4  00000000          DCB      0x00,0x00,0x00,0x00
0009b8  18180000          DCB      0x18,0x18,0x00,0x00
0009bc  00181830          DCB      0x00,0x18,0x18,0x30
0009c0  00ff0000          DCB      0x00,0xff,0x00,0x00
0009c4  00000006          DCB      0x00,0x00,0x00,0x06
0009c8  0c183060          DCB      0x0c,0x18,0x30,0x60
0009cc  30180c06          DCB      0x30,0x18,0x0c,0x06
0009d0  00ff0000          DCB      0x00,0xff,0x00,0x00
0009d4  00000000          DCB      0x00,0x00,0x00,0x00
0009d8  0000fe00          DCB      0x00,0x00,0xfe,0x00
0009dc  00fe0000          DCB      0x00,0xfe,0x00,0x00
0009e0  00ff0000          DCB      0x00,0xff,0x00,0x00
0009e4  00000060          DCB      0x00,0x00,0x00,0x60
0009e8  30180c06          DCB      0x30,0x18,0x0c,0x06
0009ec  0c183060          DCB      0x0c,0x18,0x30,0x60
0009f0  00ff0000          DCB      0x00,0xff,0x00,0x00
0009f4  00007cc6          DCB      0x00,0x00,0x7c,0xc6
0009f8  c60c1818          DCB      0xc6,0x0c,0x18,0x18
0009fc  18001818          DCB      0x18,0x00,0x18,0x18
000a00  00ff0000          DCB      0x00,0xff,0x00,0x00
000a04  0000007c          DCB      0x00,0x00,0x00,0x7c
000a08  c6c6dede          DCB      0xc6,0xc6,0xde,0xde
000a0c  dedcc07c          DCB      0xde,0xdc,0xc0,0x7c
000a10  00ff0000          DCB      0x00,0xff,0x00,0x00
000a14  00001038          DCB      0x00,0x00,0x10,0x38
000a18  6cc6c6fe          DCB      0x6c,0xc6,0xc6,0xfe
000a1c  c6c6c6c6          DCB      0xc6,0xc6,0xc6,0xc6
000a20  00ff0000          DCB      0x00,0xff,0x00,0x00
000a24  0000fc66          DCB      0x00,0x00,0xfc,0x66
000a28  66667c66          DCB      0x66,0x66,0x7c,0x66
000a2c  666666fc          DCB      0x66,0x66,0x66,0xfc
000a30  00ff0000          DCB      0x00,0xff,0x00,0x00
000a34  00003c66          DCB      0x00,0x00,0x3c,0x66
000a38  c2c0c0c0          DCB      0xc2,0xc0,0xc0,0xc0
000a3c  c0c2663c          DCB      0xc0,0xc2,0x66,0x3c
000a40  00ff0000          DCB      0x00,0xff,0x00,0x00
000a44  0000f86c          DCB      0x00,0x00,0xf8,0x6c
000a48  66666666          DCB      0x66,0x66,0x66,0x66
000a4c  66666cf8          DCB      0x66,0x66,0x6c,0xf8
000a50  00ff0000          DCB      0x00,0xff,0x00,0x00
000a54  0000fe66          DCB      0x00,0x00,0xfe,0x66
000a58  62687868          DCB      0x62,0x68,0x78,0x68
000a5c  606266fe          DCB      0x60,0x62,0x66,0xfe
000a60  00ff0000          DCB      0x00,0xff,0x00,0x00
000a64  0000fe66          DCB      0x00,0x00,0xfe,0x66
000a68  62687868          DCB      0x62,0x68,0x78,0x68
000a6c  606060f0          DCB      0x60,0x60,0x60,0xf0
000a70  00ff0000          DCB      0x00,0xff,0x00,0x00
000a74  00003c66          DCB      0x00,0x00,0x3c,0x66
000a78  c2c0c0de          DCB      0xc2,0xc0,0xc0,0xde
000a7c  c6c6663a          DCB      0xc6,0xc6,0x66,0x3a
000a80  00ff0000          DCB      0x00,0xff,0x00,0x00
000a84  0000c6c6          DCB      0x00,0x00,0xc6,0xc6
000a88  c6c6fec6          DCB      0xc6,0xc6,0xfe,0xc6
000a8c  c6c6c6c6          DCB      0xc6,0xc6,0xc6,0xc6
000a90  00ff0000          DCB      0x00,0xff,0x00,0x00
000a94  00003c18          DCB      0x00,0x00,0x3c,0x18
000a98  18181818          DCB      0x18,0x18,0x18,0x18
000a9c  1818183c          DCB      0x18,0x18,0x18,0x3c
000aa0  00ff0000          DCB      0x00,0xff,0x00,0x00
000aa4  00001e0c          DCB      0x00,0x00,0x1e,0x0c
000aa8  0c0c0c0c          DCB      0x0c,0x0c,0x0c,0x0c
000aac  cccccc78          DCB      0xcc,0xcc,0xcc,0x78
000ab0  00ff0000          DCB      0x00,0xff,0x00,0x00
000ab4  0000e666          DCB      0x00,0x00,0xe6,0x66
000ab8  6c6c7878          DCB      0x6c,0x6c,0x78,0x78
000abc  6c6666e6          DCB      0x6c,0x66,0x66,0xe6
000ac0  00ff0000          DCB      0x00,0xff,0x00,0x00
000ac4  0000f060          DCB      0x00,0x00,0xf0,0x60
000ac8  60606060          DCB      0x60,0x60,0x60,0x60
000acc  606266fe          DCB      0x60,0x62,0x66,0xfe
000ad0  00ff0000          DCB      0x00,0xff,0x00,0x00
000ad4  0000c6ee          DCB      0x00,0x00,0xc6,0xee
000ad8  fefed6c6          DCB      0xfe,0xfe,0xd6,0xc6
000adc  c6c6c6c6          DCB      0xc6,0xc6,0xc6,0xc6
000ae0  00ff0000          DCB      0x00,0xff,0x00,0x00
000ae4  0000c6e6          DCB      0x00,0x00,0xc6,0xe6
000ae8  f6fedece          DCB      0xf6,0xfe,0xde,0xce
000aec  c6c6c6c6          DCB      0xc6,0xc6,0xc6,0xc6
000af0  00ff0000          DCB      0x00,0xff,0x00,0x00
000af4  0000386c          DCB      0x00,0x00,0x38,0x6c
000af8  c6c6c6c6          DCB      0xc6,0xc6,0xc6,0xc6
000afc  c6c66c38          DCB      0xc6,0xc6,0x6c,0x38
000b00  00ff0000          DCB      0x00,0xff,0x00,0x00
000b04  0000fc66          DCB      0x00,0x00,0xfc,0x66
000b08  66667c60          DCB      0x66,0x66,0x7c,0x60
000b0c  606060f0          DCB      0x60,0x60,0x60,0xf0
000b10  00ff0000          DCB      0x00,0xff,0x00,0x00
000b14  00007cc6          DCB      0x00,0x00,0x7c,0xc6
000b18  c6c6c6c6          DCB      0xc6,0xc6,0xc6,0xc6
000b1c  c6d6de7c          DCB      0xc6,0xd6,0xde,0x7c
000b20  0cff0000          DCB      0x0c,0xff,0x00,0x00
000b24  0000fc66          DCB      0x00,0x00,0xfc,0x66
000b28  66667c6c          DCB      0x66,0x66,0x7c,0x6c
000b2c  666666e6          DCB      0x66,0x66,0x66,0xe6
000b30  00ff0000          DCB      0x00,0xff,0x00,0x00
000b34  00007cc6          DCB      0x00,0x00,0x7c,0xc6
000b38  c660380c          DCB      0xc6,0x60,0x38,0x0c
000b3c  06c6c67c          DCB      0x06,0xc6,0xc6,0x7c
000b40  00ff0000          DCB      0x00,0xff,0x00,0x00
000b44  00007e7e          DCB      0x00,0x00,0x7e,0x7e
000b48  5a181818          DCB      0x5a,0x18,0x18,0x18
000b4c  1818183c          DCB      0x18,0x18,0x18,0x3c
000b50  00ff0000          DCB      0x00,0xff,0x00,0x00
000b54  0000c6c6          DCB      0x00,0x00,0xc6,0xc6
000b58  c6c6c6c6          DCB      0xc6,0xc6,0xc6,0xc6
000b5c  c6c6c67c          DCB      0xc6,0xc6,0xc6,0x7c
000b60  00ff0000          DCB      0x00,0xff,0x00,0x00
000b64  0000c6c6          DCB      0x00,0x00,0xc6,0xc6
000b68  c6c6c6c6          DCB      0xc6,0xc6,0xc6,0xc6
000b6c  c66c3810          DCB      0xc6,0x6c,0x38,0x10
000b70  00ff0000          DCB      0x00,0xff,0x00,0x00
000b74  0000c6c6          DCB      0x00,0x00,0xc6,0xc6
000b78  c6c6c6d6          DCB      0xc6,0xc6,0xc6,0xd6
000b7c  d6fe6c6c          DCB      0xd6,0xfe,0x6c,0x6c
000b80  00ff0000          DCB      0x00,0xff,0x00,0x00
000b84  0000c6c6          DCB      0x00,0x00,0xc6,0xc6
000b88  6c6c3838          DCB      0x6c,0x6c,0x38,0x38
000b8c  6c6cc6c6          DCB      0x6c,0x6c,0xc6,0xc6
000b90  00ff0000          DCB      0x00,0xff,0x00,0x00
000b94  00006666          DCB      0x00,0x00,0x66,0x66
000b98  66663c18          DCB      0x66,0x66,0x3c,0x18
000b9c  1818183c          DCB      0x18,0x18,0x18,0x3c
000ba0  00ff0000          DCB      0x00,0xff,0x00,0x00
000ba4  0000fec6          DCB      0x00,0x00,0xfe,0xc6
000ba8  860c1830          DCB      0x86,0x0c,0x18,0x30
000bac  60c2c6fe          DCB      0x60,0xc2,0xc6,0xfe
000bb0  00ff0000          DCB      0x00,0xff,0x00,0x00
000bb4  00000080          DCB      0x00,0x00,0x00,0x80
000bb8  c0e07038          DCB      0xc0,0xe0,0x70,0x38
000bbc  1c0e0602          DCB      0x1c,0x0e,0x06,0x02
000bc0  00ff0000          DCB      0x00,0xff,0x00,0x00
000bc4  00003c0c          DCB      0x00,0x00,0x3c,0x0c
000bc8  0c0c0c0c          DCB      0x0c,0x0c,0x0c,0x0c
000bcc  0c0c0c3c          DCB      0x0c,0x0c,0x0c,0x3c
000bd0  00ff0000          DCB      0x00,0xff,0x00,0x00
000bd4  10386cc6          DCB      0x10,0x38,0x6c,0xc6
000bd8  00000000          DCB      0x00,0x00,0x00,0x00
000bdc  00000000          DCB      0x00,0x00,0x00,0x00
000be0  00ff0000          DCB      0x00,0xff,0x00,0x00
000be4  00000000          DCB      0x00,0x00,0x00,0x00
000be8  00000000          DCB      0x00,0x00,0x00,0x00
000bec  00000000          DCB      0x00,0x00,0x00,0x00
000bf0  00ff0000          DCB      0x00,0xff,0x00,0x00
000bf4  30301800          DCB      0x30,0x30,0x18,0x00
000bf8  00000000          DCB      0x00,0x00,0x00,0x00
000bfc  00000000          DCB      0x00,0x00,0x00,0x00
000c00  00ff0000          DCB      0x00,0xff,0x00,0x00
000c04  00000000          DCB      0x00,0x00,0x00,0x00
000c08  00780c7c          DCB      0x00,0x78,0x0c,0x7c
000c0c  cccccc76          DCB      0xcc,0xcc,0xcc,0x76
000c10  00ff0000          DCB      0x00,0xff,0x00,0x00
000c14  0000e060          DCB      0x00,0x00,0xe0,0x60
000c18  60786c66          DCB      0x60,0x78,0x6c,0x66
000c1c  666666dc          DCB      0x66,0x66,0x66,0xdc
000c20  00ff0000          DCB      0x00,0xff,0x00,0x00
000c24  00000000          DCB      0x00,0x00,0x00,0x00
000c28  007cc6c0          DCB      0x00,0x7c,0xc6,0xc0
000c2c  c0c0c67c          DCB      0xc0,0xc0,0xc6,0x7c
000c30  00ff0000          DCB      0x00,0xff,0x00,0x00
000c34  00001c0c          DCB      0x00,0x00,0x1c,0x0c
000c38  0c3c6ccc          DCB      0x0c,0x3c,0x6c,0xcc
000c3c  cccccc76          DCB      0xcc,0xcc,0xcc,0x76
000c40  00ff0000          DCB      0x00,0xff,0x00,0x00
000c44  00000000          DCB      0x00,0x00,0x00,0x00
000c48  007cc6fe          DCB      0x00,0x7c,0xc6,0xfe
000c4c  c0c0c67c          DCB      0xc0,0xc0,0xc6,0x7c
000c50  00ff0000          DCB      0x00,0xff,0x00,0x00
000c54  0000386c          DCB      0x00,0x00,0x38,0x6c
000c58  6460f060          DCB      0x64,0x60,0xf0,0x60
000c5c  606060f0          DCB      0x60,0x60,0x60,0xf0
000c60  00ff0000          DCB      0x00,0xff,0x00,0x00
000c64  00000000          DCB      0x00,0x00,0x00,0x00
000c68  0076cccc          DCB      0x00,0x76,0xcc,0xcc
000c6c  cccccc7c          DCB      0xcc,0xcc,0xcc,0x7c
000c70  0cff7800          DCB      0x0c,0xff,0x78,0x00
000c74  0000e060          DCB      0x00,0x00,0xe0,0x60
000c78  606c7666          DCB      0x60,0x6c,0x76,0x66
000c7c  666666e6          DCB      0x66,0x66,0x66,0xe6
000c80  00ff0000          DCB      0x00,0xff,0x00,0x00
000c84  00001818          DCB      0x00,0x00,0x18,0x18
000c88  00381818          DCB      0x00,0x38,0x18,0x18
000c8c  1818183c          DCB      0x18,0x18,0x18,0x3c
000c90  00ff0000          DCB      0x00,0xff,0x00,0x00
000c94  00000606          DCB      0x00,0x00,0x06,0x06
000c98  000e0606          DCB      0x00,0x0e,0x06,0x06
000c9c  06060606          DCB      0x06,0x06,0x06,0x06
000ca0  66ff3c00          DCB      0x66,0xff,0x3c,0x00
000ca4  0000e060          DCB      0x00,0x00,0xe0,0x60
000ca8  60666c78          DCB      0x60,0x66,0x6c,0x78
000cac  786c66e6          DCB      0x78,0x6c,0x66,0xe6
000cb0  00ff0000          DCB      0x00,0xff,0x00,0x00
000cb4  00003818          DCB      0x00,0x00,0x38,0x18
000cb8  18181818          DCB      0x18,0x18,0x18,0x18
000cbc  1818183c          DCB      0x18,0x18,0x18,0x3c
000cc0  00ff0000          DCB      0x00,0xff,0x00,0x00
000cc4  00000000          DCB      0x00,0x00,0x00,0x00
000cc8  00ecfed6          DCB      0x00,0xec,0xfe,0xd6
000ccc  d6d6d6d6          DCB      0xd6,0xd6,0xd6,0xd6
000cd0  00ff0000          DCB      0x00,0xff,0x00,0x00
000cd4  00000000          DCB      0x00,0x00,0x00,0x00
000cd8  00dc6666          DCB      0x00,0xdc,0x66,0x66
000cdc  66666666          DCB      0x66,0x66,0x66,0x66
000ce0  00ff0000          DCB      0x00,0xff,0x00,0x00
000ce4  00000000          DCB      0x00,0x00,0x00,0x00
000ce8  007cc6c6          DCB      0x00,0x7c,0xc6,0xc6
000cec  c6c6c67c          DCB      0xc6,0xc6,0xc6,0x7c
000cf0  00ff0000          DCB      0x00,0xff,0x00,0x00
000cf4  00000000          DCB      0x00,0x00,0x00,0x00
000cf8  00dc6666          DCB      0x00,0xdc,0x66,0x66
000cfc  6666667c          DCB      0x66,0x66,0x66,0x7c
000d00  60fff000          DCB      0x60,0xff,0xf0,0x00
000d04  00000000          DCB      0x00,0x00,0x00,0x00
000d08  0076cccc          DCB      0x00,0x76,0xcc,0xcc
000d0c  cccccc7c          DCB      0xcc,0xcc,0xcc,0x7c
000d10  0cff1e00          DCB      0x0c,0xff,0x1e,0x00
000d14  00000000          DCB      0x00,0x00,0x00,0x00
000d18  00dc7662          DCB      0x00,0xdc,0x76,0x62
000d1c  606060f0          DCB      0x60,0x60,0x60,0xf0
000d20  00ff0000          DCB      0x00,0xff,0x00,0x00
000d24  00000000          DCB      0x00,0x00,0x00,0x00
000d28  007cc660          DCB      0x00,0x7c,0xc6,0x60
000d2c  380cc67c          DCB      0x38,0x0c,0xc6,0x7c
000d30  00ff0000          DCB      0x00,0xff,0x00,0x00
000d34  00001030          DCB      0x00,0x00,0x10,0x30
000d38  30fc3030          DCB      0x30,0xfc,0x30,0x30
000d3c  3030361c          DCB      0x30,0x30,0x36,0x1c
000d40  00ff0000          DCB      0x00,0xff,0x00,0x00
000d44  00000000          DCB      0x00,0x00,0x00,0x00
000d48  00cccccc          DCB      0x00,0xcc,0xcc,0xcc
000d4c  cccccc76          DCB      0xcc,0xcc,0xcc,0x76
000d50  00ff0000          DCB      0x00,0xff,0x00,0x00
000d54  00000000          DCB      0x00,0x00,0x00,0x00
000d58  00666666          DCB      0x00,0x66,0x66,0x66
000d5c  66663c18          DCB      0x66,0x66,0x3c,0x18
000d60  00ff0000          DCB      0x00,0xff,0x00,0x00
000d64  00000000          DCB      0x00,0x00,0x00,0x00
000d68  00c6c6c6          DCB      0x00,0xc6,0xc6,0xc6
000d6c  d6d6fe6c          DCB      0xd6,0xd6,0xfe,0x6c
000d70  00ff0000          DCB      0x00,0xff,0x00,0x00
000d74  00000000          DCB      0x00,0x00,0x00,0x00
000d78  00c66c38          DCB      0x00,0xc6,0x6c,0x38
000d7c  38386cc6          DCB      0x38,0x38,0x6c,0xc6
000d80  00ff0000          DCB      0x00,0xff,0x00,0x00
000d84  00000000          DCB      0x00,0x00,0x00,0x00
000d88  00c6c6c6          DCB      0x00,0xc6,0xc6,0xc6
000d8c  c6c6c67e          DCB      0xc6,0xc6,0xc6,0x7e
000d90  06fff800          DCB      0x06,0xff,0xf8,0x00
000d94  00000000          DCB      0x00,0x00,0x00,0x00
000d98  00fecc18          DCB      0x00,0xfe,0xcc,0x18
000d9c  3060c6fe          DCB      0x30,0x60,0xc6,0xfe
000da0  00ff0000          DCB      0x00,0xff,0x00,0x00
000da4  00000e18          DCB      0x00,0x00,0x0e,0x18
000da8  18187018          DCB      0x18,0x18,0x70,0x18
000dac  1818180e          DCB      0x18,0x18,0x18,0x0e
000db0  00ff0000          DCB      0x00,0xff,0x00,0x00
000db4  00001818          DCB      0x00,0x00,0x18,0x18
000db8  18180018          DCB      0x18,0x18,0x00,0x18
000dbc  18181818          DCB      0x18,0x18,0x18,0x18
000dc0  00ff0000          DCB      0x00,0xff,0x00,0x00
000dc4  00007018          DCB      0x00,0x00,0x70,0x18
000dc8  18180e18          DCB      0x18,0x18,0x0e,0x18
000dcc  18181870          DCB      0x18,0x18,0x18,0x70
000dd0  00ff0000          DCB      0x00,0xff,0x00,0x00
000dd4  000076dc          DCB      0x00,0x00,0x76,0xdc
000dd8  00000000          DCB      0x00,0x00,0x00,0x00
000ddc  00000000          DCB      0x00,0x00,0x00,0x00
000de0  00ff0000          DCB      0x00,0xff,0x00,0x00
000de4  ffffffff          DCB      0xff,0xff,0xff,0xff
000de8  ffffffff          DCB      0xff,0xff,0xff,0xff
000dec  ffffffff          DCB      0xff,0xff,0xff,0xff
000df0  ffffff00          DCB      0xff,0xff,0xff,0x00
                          %        16
                  tft_init_code
000e04  00cb392c          DCB      0x00,0xcb,0x39,0x2c
000e08  00340243          DCB      0x00,0x34,0x02,0x43
000e0c  cf00c130          DCB      0xcf,0x00,0xc1,0x30
000e10  43e88500          DCB      0x43,0xe8,0x85,0x00
000e14  7843ea00          DCB      0x78,0x43,0xea,0x00
000e18  0043ea00          DCB      0x00,0x43,0xea,0x00
000e1c  0043ed64          DCB      0x00,0x43,0xed,0x64
000e20  03128143          DCB      0x03,0x12,0x81,0x43
000e24  f72043c0          DCB      0xf7,0x20,0x43,0xc0
000e28  2343c110          DCB      0x23,0x43,0xc1,0x10
000e2c  43c53e28          DCB      0x43,0xc5,0x3e,0x28
000e30  43c78643          DCB      0x43,0xc7,0x86,0x43
000e34  36433a55          DCB      0x36,0x43,0x3a,0x55
000e38  43b10018          DCB      0x43,0xb1,0x00,0x18
000e3c  43b60882          DCB      0x43,0xb6,0x08,0x82
000e40  274311ff          DCB      0x27,0x43,0x11,0xff
000e44  78432943          DCB      0x78,0x43,0x29,0x43
000e48  2c4342            DCB      0x2c,0x43,0x42

                          AREA ||.data||, DATA, ALIGN=1

                  tft_orientation
000000  00                DCB      0x00
                  char_max_x
000001  00                DCB      0x00
                  char_max_y
000002  00                DCB      0x00
                  cur_screen
000003  00                DCB      0x00
                  next_screen
000004  0000              DCB      0x00,0x00
                  curr_bg_color
000006  0000              DCW      0x0000
                  curr_highlight_color
000008  0000              DCW      0x0000
                  curr_text_color
00000a  0000              DCW      0x0000
                  curr_text_color_sp
00000c  0000              DCW      0x0000
                  row_width
00000e  0000              DCB      0x00,0x00

                          AREA ||area_number.37||, DATA, ALIGN=0

                          EXPORTAS ||area_number.37||, ||.data||
                  tft_enabled
000000  01                DCB      0x01

                          AREA ||area_number.38||, DATA, ALIGN=0

                          EXPORTAS ||area_number.38||, ||.data||
                  pointer_to_curr_screen
000000  00                DCB      0x00

                          AREA ||i.tft_printc||, COMGROUP=tft_printc, CODE, READONLY, ALIGN=2

                  tft_printc PROC
;;;444    
;;;445    void tft_printc(uint8_t x, uint8_t y, char * fp) {
000000  e92d4ff0          PUSH     {r4-r11,lr}
;;;446    	uint8_t i = x;
;;;447    	uint8_t j = y;
;;;448    	uint8_t is_special = 0;
;;;449    	uint8_t is_highlighted = 0;
;;;450    	uint8_t is_underlined = 0;
;;;451    	// uint8_t escaped = 0;
;;;452    	
;;;453    	while (*fp && i < char_max_x && j < char_max_y) {
;;;454    		switch(*fp) {
;;;455    			case '\r':
;;;456    			case '\n':
;;;457    			j++;
;;;458    			i = x;
;;;459    			break;
;;;460    			case '[':
;;;461    			case ']':
;;;462    			is_special = (*fp == '[');
;;;463    			break;
;;;464    			case '{':
;;;465    			case '}':
;;;466    			is_highlighted = (*fp == '{');
;;;467    			break;
;;;468    			// case '|':
;;;469    			// is_underlined = !is_underlined;
;;;470    			// break;
;;;471    			default:
;;;472    			text_buf[cur_screen][i][j] = ((*fp) | (is_underlined ? 0x80 : 0x00));
;;;473    			text_color_buf[cur_screen][i][j] = is_special     ? curr_text_color_sp   : curr_text_color;
;;;474    			bg_color_buf[cur_screen][i++][j] = is_highlighted ? curr_highlight_color : curr_bg_color;
000004  4b35              LDR      r3,|L189.220|
000006  b084              SUB      sp,sp,#0x10           ;445
000008  2400              MOVS     r4,#0                 ;448
00000a  88de              LDRH     r6,[r3,#6]  ; curr_bg_color
00000c  9603              STR      r6,[sp,#0xc]          ;473
00000e  895e              LDRH     r6,[r3,#0xa]          ;473  ; curr_text_color
000010  9602              STR      r6,[sp,#8]            ;453
000012  785e              LDRB     r6,[r3,#1]            ;453  ; char_max_x
000014  789f              LDRB     r7,[r3,#2]            ;453  ; char_max_y
000016  f8938003          LDRB     r8,[r3,#3]            ;472  ; cur_screen
00001a  f8b3900c          LDRH     r9,[r3,#0xc]          ;473  ; curr_text_color_sp
00001e  f8cd9004          STR      r9,[sp,#4]
000022  f8b3b008          LDRH     r11,[r3,#8]  ; curr_highlight_color
000026  f8df90b8          LDR      r9,|L189.224|
00002a  eb0803c8          ADD      r3,r8,r8,LSL #3       ;472
00002e  eb031308          ADD      r3,r3,r8,LSL #4       ;472
000032  eb091a43          ADD      r10,r9,r3,LSL #5      ;472
000036  f50968c8          ADD      r8,r9,#0x640          ;473
00003a  eb081983          ADD      r9,r8,r3,LSL #6       ;473
00003e  f5086848          ADD      r8,r8,#0xc80
000042  4684              MOV      r12,r0                ;446
000044  4625              MOV      r5,r4                 ;449
000046  eb081883          ADD      r8,r8,r3,LSL #6
00004a  e034              B        |L189.182|
                  |L189.76|
00004c  2b5d              CMP      r3,#0x5d              ;454
00004e  d040              BEQ      |L189.210|
000050  dc28              BGT      |L189.164|
000052  2b0a              CMP      r3,#0xa               ;454
000054  bf18              IT       NE                    ;454
000056  2b0d              CMPNE    r3,#0xd               ;454
000058  d037              BEQ      |L189.202|
00005a  2b5b              CMP      r3,#0x5b              ;454
00005c  d039              BEQ      |L189.210|
00005e  bf00              NOP                            ;472
                  |L189.96|
000060  eb0c0e8c          ADD      lr,r12,r12,LSL #2     ;472
000064  f8cde000          STR      lr,[sp,#0]            ;472
000068  eb0a0e8e          ADD      lr,r10,lr,LSL #2      ;472
00006c  2c00              CMP      r4,#0                 ;473
00006e  f80e3001          STRB     r3,[lr,r1]            ;472
000072  bf14              ITE      NE                    ;473
000074  f8dde004          LDRNE    lr,[sp,#4]            ;473
000078  f8dde008          LDREQ    lr,[sp,#8]            ;473
00007c  9b00              LDR      r3,[sp,#0]            ;473
00007e  2d00              CMP      r5,#0
000080  eb0903c3          ADD      r3,r9,r3,LSL #3       ;473
000084  f823e011          STRH     lr,[r3,r1,LSL #1]     ;473
000088  bf14              ITE      NE
00008a  46de              MOVNE    lr,r11
00008c  f8dde00c          LDREQ    lr,[sp,#0xc]
000090  9b00              LDR      r3,[sp,#0]
000092  eb0803c3          ADD      r3,r8,r3,LSL #3
000096  f823e011          STRH     lr,[r3,r1,LSL #1]
00009a  f10c0301          ADD      r3,r12,#1
00009e  f0030cff          AND      r12,r3,#0xff
0000a2  e007              B        |L189.180|
                  |L189.164|
0000a4  2b7b              CMP      r3,#0x7b              ;454
0000a6  bf18              IT       NE                    ;454
0000a8  2b7d              CMPNE    r3,#0x7d              ;454
0000aa  d1d9              BNE      |L189.96|
0000ac  2b7b              CMP      r3,#0x7b              ;466
0000ae  bf0c              ITE      EQ                    ;466
0000b0  2501              MOVEQ    r5,#1                 ;466
0000b2  2500              MOVNE    r5,#0                 ;466
                  |L189.180|
0000b4  1c52              ADDS     r2,r2,#1              ;466
                  |L189.182|
0000b6  7813              LDRB     r3,[r2,#0]            ;453
0000b8  2b00              CMP      r3,#0                 ;453
0000ba  bf18              IT       NE                    ;453
0000bc  45b4              CMPNE    r12,r6                ;453
0000be  bf32              ITEE     CC                    ;453
0000c0  42b9              CMPCC    r1,r7                 ;453
;;;475    			break;
;;;476    		}
;;;477    		fp++;
;;;478    	}
;;;479    }
0000c2  b004              ADDCS    sp,sp,#0x10
0000c4  e8bd8ff0          POPCS    {r4-r11,pc}
0000c8  e7c0              B        |L189.76|
                  |L189.202|
0000ca  1c49              ADDS     r1,r1,#1              ;453
0000cc  b2c9              UXTB     r1,r1                 ;457
0000ce  4684              MOV      r12,r0                ;458
0000d0  e7f0              B        |L189.180|
                  |L189.210|
0000d2  2b5b              CMP      r3,#0x5b              ;462
0000d4  bf0c              ITE      EQ                    ;462
0000d6  2401              MOVEQ    r4,#1                 ;462
0000d8  2400              MOVNE    r4,#0                 ;462
0000da  e7eb              B        |L189.180|
;;;480    
                          ENDP

                  |L189.220|
                          DCD      ||.data||
                  |L189.224|
                          DCD      ||.bss||

;*** Start embedded assembler ***

#line 1 "..\\Src\\lcd_main.c"
	AREA ||.rev16_text||, CODE
	THUMB
	EXPORT |__asm___10_lcd_main_c_e39c11c5____REV16|
#line 388 "../Drivers/CMSIS/Include/cmsis_armcc.h"
|__asm___10_lcd_main_c_e39c11c5____REV16| PROC
#line 389

 rev16 r0, r0
 bx lr
	ENDP
	AREA ||.revsh_text||, CODE
	THUMB
	EXPORT |__asm___10_lcd_main_c_e39c11c5____REVSH|
#line 402
|__asm___10_lcd_main_c_e39c11c5____REVSH| PROC
#line 403

 revsh r0, r0
 bx lr
	ENDP
	AREA ||.rrx_text||, CODE
	THUMB
	EXPORT |__asm___10_lcd_main_c_e39c11c5____RRX|
#line 587
|__asm___10_lcd_main_c_e39c11c5____RRX| PROC
#line 588

 rrx r0, r0
 bx lr
	ENDP

;*** End   embedded assembler ***
